
_usertests:     file format elf32-i386


Disassembly of section .text:

00000000 <main>:
  return randstate;
}

int
main(int argc, char *argv[])
{
       0:	8d 4c 24 04          	lea    0x4(%esp),%ecx
       4:	83 e4 f0             	and    $0xfffffff0,%esp
       7:	ff 71 fc             	push   -0x4(%ecx)
       a:	55                   	push   %ebp
       b:	89 e5                	mov    %esp,%ebp
       d:	51                   	push   %ecx
       e:	83 ec 0c             	sub    $0xc,%esp
  printf(1, "usertests starting\n");
      11:	68 26 4d 00 00       	push   $0x4d26
      16:	6a 01                	push   $0x1
      18:	e8 f3 39 00 00       	call   3a10 <printf>

  if(open("usertests.ran", 0) >= 0){
      1d:	59                   	pop    %ecx
      1e:	58                   	pop    %eax
      1f:	6a 00                	push   $0x0
      21:	68 3a 4d 00 00       	push   $0x4d3a
      26:	e8 c8 38 00 00       	call   38f3 <open>
      2b:	83 c4 10             	add    $0x10,%esp
      2e:	85 c0                	test   %eax,%eax
      30:	78 13                	js     45 <main+0x45>
    printf(1, "already ran user tests -- rebuild fs.img\n");
      32:	52                   	push   %edx
      33:	52                   	push   %edx
      34:	68 a4 54 00 00       	push   $0x54a4
      39:	6a 01                	push   $0x1
      3b:	e8 d0 39 00 00       	call   3a10 <printf>
    exit();
      40:	e8 6e 38 00 00       	call   38b3 <exit>
  }
  close(open("usertests.ran", O_CREATE));
      45:	50                   	push   %eax
      46:	50                   	push   %eax
      47:	68 00 02 00 00       	push   $0x200
      4c:	68 3a 4d 00 00       	push   $0x4d3a
      51:	e8 9d 38 00 00       	call   38f3 <open>
      56:	89 04 24             	mov    %eax,(%esp)
      59:	e8 7d 38 00 00       	call   38db <close>

  argptest();
      5e:	e8 7d 35 00 00       	call   35e0 <argptest>
  createdelete();
      63:	e8 c8 11 00 00       	call   1230 <createdelete>
  linkunlink();
      68:	e8 63 1a 00 00       	call   1ad0 <linkunlink>
  concreate();
      6d:	e8 5e 17 00 00       	call   17d0 <concreate>
  fourfiles();
      72:	e8 b9 0f 00 00       	call   1030 <fourfiles>
  sharedfd();
      77:	e8 f4 0d 00 00       	call   e70 <sharedfd>

  bigargtest();
      7c:	e8 1f 32 00 00       	call   32a0 <bigargtest>
  bigwrite();
      81:	e8 6a 23 00 00       	call   23f0 <bigwrite>
  bigargtest();
      86:	e8 15 32 00 00       	call   32a0 <bigargtest>
  bsstest();
      8b:	e8 a0 31 00 00       	call   3230 <bsstest>
  sbrktest();
      90:	e8 9b 2c 00 00       	call   2d30 <sbrktest>
  validatetest();
      95:	e8 e6 30 00 00       	call   3180 <validatetest>

  opentest();
      9a:	e8 61 03 00 00       	call   400 <opentest>
  writetest();
      9f:	e8 ec 03 00 00       	call   490 <writetest>
  writetest1();
      a4:	e8 c7 05 00 00       	call   670 <writetest1>
  createtest();
      a9:	e8 92 07 00 00       	call   840 <createtest>

  openiputtest();
      ae:	e8 4d 02 00 00       	call   300 <openiputtest>
  exitiputtest();
      b3:	e8 48 01 00 00       	call   200 <exitiputtest>
  iputtest();
      b8:	e8 63 00 00 00       	call   120 <iputtest>

  mem();
      bd:	e8 de 0c 00 00       	call   da0 <mem>
  pipe1();
      c2:	e8 59 09 00 00       	call   a20 <pipe1>
  preempt();
      c7:	e8 f4 0a 00 00       	call   bc0 <preempt>
  exitwait();
      cc:	e8 4f 0c 00 00       	call   d20 <exitwait>

  rmdot();
      d1:	e8 0a 27 00 00       	call   27e0 <rmdot>
  fourteen();
      d6:	e8 c5 25 00 00       	call   26a0 <fourteen>
  bigfile();
      db:	e8 f0 23 00 00       	call   24d0 <bigfile>
  subdir();
      e0:	e8 2b 1c 00 00       	call   1d10 <subdir>
  linktest();
      e5:	e8 d6 14 00 00       	call   15c0 <linktest>
  unlinkread();
      ea:	e8 41 13 00 00       	call   1430 <unlinkread>
  dirfile();
      ef:	e8 6c 28 00 00       	call   2960 <dirfile>
  iref();
      f4:	e8 67 2a 00 00       	call   2b60 <iref>
  forktest();
      f9:	e8 82 2b 00 00       	call   2c80 <forktest>
  bigdir(); // slow
      fe:	e8 dd 1a 00 00       	call   1be0 <bigdir>

  uio();
     103:	e8 68 34 00 00       	call   3570 <uio>

  exectest();
     108:	e8 c3 08 00 00       	call   9d0 <exectest>

  exit();
     10d:	e8 a1 37 00 00       	call   38b3 <exit>
     112:	66 90                	xchg   %ax,%ax
     114:	66 90                	xchg   %ax,%ax
     116:	66 90                	xchg   %ax,%ax
     118:	66 90                	xchg   %ax,%ax
     11a:	66 90                	xchg   %ax,%ax
     11c:	66 90                	xchg   %ax,%ax
     11e:	66 90                	xchg   %ax,%ax

00000120 <iputtest>:
{
     120:	55                   	push   %ebp
     121:	89 e5                	mov    %esp,%ebp
     123:	83 ec 10             	sub    $0x10,%esp
  printf(stdout, "iput test\n");
     126:	68 cc 3d 00 00       	push   $0x3dcc
     12b:	ff 35 18 5e 00 00    	push   0x5e18
     131:	e8 da 38 00 00       	call   3a10 <printf>
  if(mkdir("iputdir") < 0){
     136:	c7 04 24 5f 3d 00 00 	movl   $0x3d5f,(%esp)
     13d:	e8 d9 37 00 00       	call   391b <mkdir>
     142:	83 c4 10             	add    $0x10,%esp
     145:	85 c0                	test   %eax,%eax
     147:	78 58                	js     1a1 <iputtest+0x81>
  if(chdir("iputdir") < 0){
     149:	83 ec 0c             	sub    $0xc,%esp
     14c:	68 5f 3d 00 00       	push   $0x3d5f
     151:	e8 cd 37 00 00       	call   3923 <chdir>
     156:	83 c4 10             	add    $0x10,%esp
     159:	85 c0                	test   %eax,%eax
     15b:	0f 88 85 00 00 00    	js     1e6 <iputtest+0xc6>
  if(unlink("../iputdir") < 0){
     161:	83 ec 0c             	sub    $0xc,%esp
     164:	68 5c 3d 00 00       	push   $0x3d5c
     169:	e8 95 37 00 00       	call   3903 <unlink>
     16e:	83 c4 10             	add    $0x10,%esp
     171:	85 c0                	test   %eax,%eax
     173:	78 5a                	js     1cf <iputtest+0xaf>
  if(chdir("/") < 0){
     175:	83 ec 0c             	sub    $0xc,%esp
     178:	68 81 3d 00 00       	push   $0x3d81
     17d:	e8 a1 37 00 00       	call   3923 <chdir>
     182:	83 c4 10             	add    $0x10,%esp
     185:	85 c0                	test   %eax,%eax
     187:	78 2f                	js     1b8 <iputtest+0x98>
  printf(stdout, "iput test ok\n");
     189:	83 ec 08             	sub    $0x8,%esp
     18c:	68 04 3e 00 00       	push   $0x3e04
     191:	ff 35 18 5e 00 00    	push   0x5e18
     197:	e8 74 38 00 00       	call   3a10 <printf>
}
     19c:	83 c4 10             	add    $0x10,%esp
     19f:	c9                   	leave
     1a0:	c3                   	ret
    printf(stdout, "mkdir failed\n");
     1a1:	50                   	push   %eax
     1a2:	50                   	push   %eax
     1a3:	68 38 3d 00 00       	push   $0x3d38
     1a8:	ff 35 18 5e 00 00    	push   0x5e18
     1ae:	e8 5d 38 00 00       	call   3a10 <printf>
    exit();
     1b3:	e8 fb 36 00 00       	call   38b3 <exit>
    printf(stdout, "chdir / failed\n");
     1b8:	50                   	push   %eax
     1b9:	50                   	push   %eax
     1ba:	68 83 3d 00 00       	push   $0x3d83
     1bf:	ff 35 18 5e 00 00    	push   0x5e18
     1c5:	e8 46 38 00 00       	call   3a10 <printf>
    exit();
     1ca:	e8 e4 36 00 00       	call   38b3 <exit>
    printf(stdout, "unlink ../iputdir failed\n");
     1cf:	52                   	push   %edx
     1d0:	52                   	push   %edx
     1d1:	68 67 3d 00 00       	push   $0x3d67
     1d6:	ff 35 18 5e 00 00    	push   0x5e18
     1dc:	e8 2f 38 00 00       	call   3a10 <printf>
    exit();
     1e1:	e8 cd 36 00 00       	call   38b3 <exit>
    printf(stdout, "chdir iputdir failed\n");
     1e6:	51                   	push   %ecx
     1e7:	51                   	push   %ecx
     1e8:	68 46 3d 00 00       	push   $0x3d46
     1ed:	ff 35 18 5e 00 00    	push   0x5e18
     1f3:	e8 18 38 00 00       	call   3a10 <printf>
    exit();
     1f8:	e8 b6 36 00 00       	call   38b3 <exit>
     1fd:	8d 76 00             	lea    0x0(%esi),%esi

00000200 <exitiputtest>:
{
     200:	55                   	push   %ebp
     201:	89 e5                	mov    %esp,%ebp
     203:	83 ec 10             	sub    $0x10,%esp
  printf(stdout, "exitiput test\n");
     206:	68 93 3d 00 00       	push   $0x3d93
     20b:	ff 35 18 5e 00 00    	push   0x5e18
     211:	e8 fa 37 00 00       	call   3a10 <printf>
  pid = fork();
     216:	e8 90 36 00 00       	call   38ab <fork>
  if(pid < 0){
     21b:	83 c4 10             	add    $0x10,%esp
     21e:	85 c0                	test   %eax,%eax
     220:	0f 88 8a 00 00 00    	js     2b0 <exitiputtest+0xb0>
  if(pid == 0){
     226:	75 50                	jne    278 <exitiputtest+0x78>
    if(mkdir("iputdir") < 0){
     228:	83 ec 0c             	sub    $0xc,%esp
     22b:	68 5f 3d 00 00       	push   $0x3d5f
     230:	e8 e6 36 00 00       	call   391b <mkdir>
     235:	83 c4 10             	add    $0x10,%esp
     238:	85 c0                	test   %eax,%eax
     23a:	0f 88 87 00 00 00    	js     2c7 <exitiputtest+0xc7>
    if(chdir("iputdir") < 0){
     240:	83 ec 0c             	sub    $0xc,%esp
     243:	68 5f 3d 00 00       	push   $0x3d5f
     248:	e8 d6 36 00 00       	call   3923 <chdir>
     24d:	83 c4 10             	add    $0x10,%esp
     250:	85 c0                	test   %eax,%eax
     252:	0f 88 86 00 00 00    	js     2de <exitiputtest+0xde>
    if(unlink("../iputdir") < 0){
     258:	83 ec 0c             	sub    $0xc,%esp
     25b:	68 5c 3d 00 00       	push   $0x3d5c
     260:	e8 9e 36 00 00       	call   3903 <unlink>
     265:	83 c4 10             	add    $0x10,%esp
     268:	85 c0                	test   %eax,%eax
     26a:	78 2c                	js     298 <exitiputtest+0x98>
    exit();
     26c:	e8 42 36 00 00       	call   38b3 <exit>
     271:	8d b4 26 00 00 00 00 	lea    0x0(%esi,%eiz,1),%esi
  wait();
     278:	e8 3e 36 00 00       	call   38bb <wait>
  printf(stdout, "exitiput test ok\n");
     27d:	83 ec 08             	sub    $0x8,%esp
     280:	68 b6 3d 00 00       	push   $0x3db6
     285:	ff 35 18 5e 00 00    	push   0x5e18
     28b:	e8 80 37 00 00       	call   3a10 <printf>
}
     290:	83 c4 10             	add    $0x10,%esp
     293:	c9                   	leave
     294:	c3                   	ret
     295:	8d 76 00             	lea    0x0(%esi),%esi
      printf(stdout, "unlink ../iputdir failed\n");
     298:	83 ec 08             	sub    $0x8,%esp
     29b:	68 67 3d 00 00       	push   $0x3d67
     2a0:	ff 35 18 5e 00 00    	push   0x5e18
     2a6:	e8 65 37 00 00       	call   3a10 <printf>
      exit();
     2ab:	e8 03 36 00 00       	call   38b3 <exit>
    printf(stdout, "fork failed\n");
     2b0:	51                   	push   %ecx
     2b1:	51                   	push   %ecx
     2b2:	68 79 4c 00 00       	push   $0x4c79
     2b7:	ff 35 18 5e 00 00    	push   0x5e18
     2bd:	e8 4e 37 00 00       	call   3a10 <printf>
    exit();
     2c2:	e8 ec 35 00 00       	call   38b3 <exit>
      printf(stdout, "mkdir failed\n");
     2c7:	52                   	push   %edx
     2c8:	52                   	push   %edx
     2c9:	68 38 3d 00 00       	push   $0x3d38
     2ce:	ff 35 18 5e 00 00    	push   0x5e18
     2d4:	e8 37 37 00 00       	call   3a10 <printf>
      exit();
     2d9:	e8 d5 35 00 00       	call   38b3 <exit>
      printf(stdout, "child chdir failed\n");
     2de:	50                   	push   %eax
     2df:	50                   	push   %eax
     2e0:	68 a2 3d 00 00       	push   $0x3da2
     2e5:	ff 35 18 5e 00 00    	push   0x5e18
     2eb:	e8 20 37 00 00       	call   3a10 <printf>
      exit();
     2f0:	e8 be 35 00 00       	call   38b3 <exit>
     2f5:	8d b4 26 00 00 00 00 	lea    0x0(%esi,%eiz,1),%esi
     2fc:	8d 74 26 00          	lea    0x0(%esi,%eiz,1),%esi

00000300 <openiputtest>:
{
     300:	55                   	push   %ebp
     301:	89 e5                	mov    %esp,%ebp
     303:	83 ec 10             	sub    $0x10,%esp
  printf(stdout, "openiput test\n");
     306:	68 c8 3d 00 00       	push   $0x3dc8
     30b:	ff 35 18 5e 00 00    	push   0x5e18
     311:	e8 fa 36 00 00       	call   3a10 <printf>
  if(mkdir("oidir") < 0){
     316:	c7 04 24 d7 3d 00 00 	movl   $0x3dd7,(%esp)
     31d:	e8 f9 35 00 00       	call   391b <mkdir>
     322:	83 c4 10             	add    $0x10,%esp
     325:	85 c0                	test   %eax,%eax
     327:	0f 88 9f 00 00 00    	js     3cc <openiputtest+0xcc>
  pid = fork();
     32d:	e8 79 35 00 00       	call   38ab <fork>
  if(pid < 0){
     332:	85 c0                	test   %eax,%eax
     334:	78 7f                	js     3b5 <openiputtest+0xb5>
  if(pid == 0){
     336:	75 38                	jne    370 <openiputtest+0x70>
    int fd = open("oidir", O_RDWR);
     338:	83 ec 08             	sub    $0x8,%esp
     33b:	6a 02                	push   $0x2
     33d:	68 d7 3d 00 00       	push   $0x3dd7
     342:	e8 ac 35 00 00       	call   38f3 <open>
    if(fd >= 0){
     347:	83 c4 10             	add    $0x10,%esp
     34a:	85 c0                	test   %eax,%eax
     34c:	78 62                	js     3b0 <openiputtest+0xb0>
      printf(stdout, "open directory for write succeeded\n");
     34e:	83 ec 08             	sub    $0x8,%esp
     351:	68 5c 4d 00 00       	push   $0x4d5c
     356:	ff 35 18 5e 00 00    	push   0x5e18
     35c:	e8 af 36 00 00       	call   3a10 <printf>
      exit();
     361:	e8 4d 35 00 00       	call   38b3 <exit>
     366:	8d b4 26 00 00 00 00 	lea    0x0(%esi,%eiz,1),%esi
     36d:	8d 76 00             	lea    0x0(%esi),%esi
  sleep(1);
     370:	83 ec 0c             	sub    $0xc,%esp
     373:	6a 01                	push   $0x1
     375:	e8 c9 35 00 00       	call   3943 <sleep>
  if(unlink("oidir") != 0){
     37a:	c7 04 24 d7 3d 00 00 	movl   $0x3dd7,(%esp)
     381:	e8 7d 35 00 00       	call   3903 <unlink>
     386:	83 c4 10             	add    $0x10,%esp
     389:	85 c0                	test   %eax,%eax
     38b:	75 56                	jne    3e3 <openiputtest+0xe3>
  wait();
     38d:	e8 29 35 00 00       	call   38bb <wait>
  printf(stdout, "openiput test ok\n");
     392:	83 ec 08             	sub    $0x8,%esp
     395:	68 00 3e 00 00       	push   $0x3e00
     39a:	ff 35 18 5e 00 00    	push   0x5e18
     3a0:	e8 6b 36 00 00       	call   3a10 <printf>
}
     3a5:	83 c4 10             	add    $0x10,%esp
     3a8:	c9                   	leave
     3a9:	c3                   	ret
     3aa:	8d b6 00 00 00 00    	lea    0x0(%esi),%esi
    exit();
     3b0:	e8 fe 34 00 00       	call   38b3 <exit>
    printf(stdout, "fork failed\n");
     3b5:	52                   	push   %edx
     3b6:	52                   	push   %edx
     3b7:	68 79 4c 00 00       	push   $0x4c79
     3bc:	ff 35 18 5e 00 00    	push   0x5e18
     3c2:	e8 49 36 00 00       	call   3a10 <printf>
    exit();
     3c7:	e8 e7 34 00 00       	call   38b3 <exit>
    printf(stdout, "mkdir oidir failed\n");
     3cc:	51                   	push   %ecx
     3cd:	51                   	push   %ecx
     3ce:	68 dd 3d 00 00       	push   $0x3ddd
     3d3:	ff 35 18 5e 00 00    	push   0x5e18
     3d9:	e8 32 36 00 00       	call   3a10 <printf>
    exit();
     3de:	e8 d0 34 00 00       	call   38b3 <exit>
    printf(stdout, "unlink failed\n");
     3e3:	50                   	push   %eax
     3e4:	50                   	push   %eax
     3e5:	68 f1 3d 00 00       	push   $0x3df1
     3ea:	ff 35 18 5e 00 00    	push   0x5e18
     3f0:	e8 1b 36 00 00       	call   3a10 <printf>
    exit();
     3f5:	e8 b9 34 00 00       	call   38b3 <exit>
     3fa:	8d b6 00 00 00 00    	lea    0x0(%esi),%esi

00000400 <opentest>:
{
     400:	55                   	push   %ebp
     401:	89 e5                	mov    %esp,%ebp
     403:	83 ec 10             	sub    $0x10,%esp
  printf(stdout, "open test\n");
     406:	68 12 3e 00 00       	push   $0x3e12
     40b:	ff 35 18 5e 00 00    	push   0x5e18
     411:	e8 fa 35 00 00       	call   3a10 <printf>
  fd = open("echo", 0);
     416:	58                   	pop    %eax
     417:	5a                   	pop    %edx
     418:	6a 00                	push   $0x0
     41a:	68 1d 3e 00 00       	push   $0x3e1d
     41f:	e8 cf 34 00 00       	call   38f3 <open>
  if(fd < 0){
     424:	83 c4 10             	add    $0x10,%esp
     427:	85 c0                	test   %eax,%eax
     429:	78 36                	js     461 <opentest+0x61>
  close(fd);
     42b:	83 ec 0c             	sub    $0xc,%esp
     42e:	50                   	push   %eax
     42f:	e8 a7 34 00 00       	call   38db <close>
  fd = open("doesnotexist", 0);
     434:	5a                   	pop    %edx
     435:	59                   	pop    %ecx
     436:	6a 00                	push   $0x0
     438:	68 35 3e 00 00       	push   $0x3e35
     43d:	e8 b1 34 00 00       	call   38f3 <open>
  if(fd >= 0){
     442:	83 c4 10             	add    $0x10,%esp
     445:	85 c0                	test   %eax,%eax
     447:	79 2f                	jns    478 <opentest+0x78>
  printf(stdout, "open test ok\n");
     449:	83 ec 08             	sub    $0x8,%esp
     44c:	68 60 3e 00 00       	push   $0x3e60
     451:	ff 35 18 5e 00 00    	push   0x5e18
     457:	e8 b4 35 00 00       	call   3a10 <printf>
}
     45c:	83 c4 10             	add    $0x10,%esp
     45f:	c9                   	leave
     460:	c3                   	ret
    printf(stdout, "open echo failed!\n");
     461:	50                   	push   %eax
     462:	50                   	push   %eax
     463:	68 22 3e 00 00       	push   $0x3e22
     468:	ff 35 18 5e 00 00    	push   0x5e18
     46e:	e8 9d 35 00 00       	call   3a10 <printf>
    exit();
     473:	e8 3b 34 00 00       	call   38b3 <exit>
    printf(stdout, "open doesnotexist succeeded!\n");
     478:	50                   	push   %eax
     479:	50                   	push   %eax
     47a:	68 42 3e 00 00       	push   $0x3e42
     47f:	ff 35 18 5e 00 00    	push   0x5e18
     485:	e8 86 35 00 00       	call   3a10 <printf>
    exit();
     48a:	e8 24 34 00 00       	call   38b3 <exit>
     48f:	90                   	nop

00000490 <writetest>:
{
     490:	55                   	push   %ebp
     491:	89 e5                	mov    %esp,%ebp
     493:	56                   	push   %esi
     494:	53                   	push   %ebx
  printf(stdout, "small file test\n");
     495:	83 ec 08             	sub    $0x8,%esp
     498:	68 6e 3e 00 00       	push   $0x3e6e
     49d:	ff 35 18 5e 00 00    	push   0x5e18
     4a3:	e8 68 35 00 00       	call   3a10 <printf>
  fd = open("small", O_CREATE|O_RDWR);
     4a8:	58                   	pop    %eax
     4a9:	5a                   	pop    %edx
     4aa:	68 02 02 00 00       	push   $0x202
     4af:	68 7f 3e 00 00       	push   $0x3e7f
     4b4:	e8 3a 34 00 00       	call   38f3 <open>
  if(fd >= 0){
     4b9:	83 c4 10             	add    $0x10,%esp
     4bc:	85 c0                	test   %eax,%eax
     4be:	0f 88 88 01 00 00    	js     64c <writetest+0x1bc>
    printf(stdout, "creat small succeeded; ok\n");
     4c4:	83 ec 08             	sub    $0x8,%esp
     4c7:	89 c6                	mov    %eax,%esi
  for(i = 0; i < 100; i++){
     4c9:	31 db                	xor    %ebx,%ebx
    printf(stdout, "creat small succeeded; ok\n");
     4cb:	68 85 3e 00 00       	push   $0x3e85
     4d0:	ff 35 18 5e 00 00    	push   0x5e18
     4d6:	e8 35 35 00 00       	call   3a10 <printf>
     4db:	83 c4 10             	add    $0x10,%esp
     4de:	66 90                	xchg   %ax,%ax
    if(write(fd, "aaaaaaaaaa", 10) != 10){
     4e0:	83 ec 04             	sub    $0x4,%esp
     4e3:	6a 0a                	push   $0xa
     4e5:	68 bc 3e 00 00       	push   $0x3ebc
     4ea:	56                   	push   %esi
     4eb:	e8 e3 33 00 00       	call   38d3 <write>
     4f0:	83 c4 10             	add    $0x10,%esp
     4f3:	83 f8 0a             	cmp    $0xa,%eax
     4f6:	0f 85 d9 00 00 00    	jne    5d5 <writetest+0x145>
    if(write(fd, "bbbbbbbbbb", 10) != 10){
     4fc:	83 ec 04             	sub    $0x4,%esp
     4ff:	6a 0a                	push   $0xa
     501:	68 c7 3e 00 00       	push   $0x3ec7
     506:	56                   	push   %esi
     507:	e8 c7 33 00 00       	call   38d3 <write>
     50c:	83 c4 10             	add    $0x10,%esp
     50f:	83 f8 0a             	cmp    $0xa,%eax
     512:	0f 85 d6 00 00 00    	jne    5ee <writetest+0x15e>
  for(i = 0; i < 100; i++){
     518:	83 c3 01             	add    $0x1,%ebx
     51b:	83 fb 64             	cmp    $0x64,%ebx
     51e:	75 c0                	jne    4e0 <writetest+0x50>
  printf(stdout, "writes ok\n");
     520:	83 ec 08             	sub    $0x8,%esp
     523:	68 d2 3e 00 00       	push   $0x3ed2
     528:	ff 35 18 5e 00 00    	push   0x5e18
     52e:	e8 dd 34 00 00       	call   3a10 <printf>
  close(fd);
     533:	89 34 24             	mov    %esi,(%esp)
     536:	e8 a0 33 00 00       	call   38db <close>
  fd = open("small", O_RDONLY);
     53b:	5b                   	pop    %ebx
     53c:	5e                   	pop    %esi
     53d:	6a 00                	push   $0x0
     53f:	68 7f 3e 00 00       	push   $0x3e7f
     544:	e8 aa 33 00 00       	call   38f3 <open>
  if(fd >= 0){
     549:	83 c4 10             	add    $0x10,%esp
  fd = open("small", O_RDONLY);
     54c:	89 c3                	mov    %eax,%ebx
  if(fd >= 0){
     54e:	85 c0                	test   %eax,%eax
     550:	0f 88 b1 00 00 00    	js     607 <writetest+0x177>
    printf(stdout, "open small succeeded ok\n");
     556:	83 ec 08             	sub    $0x8,%esp
     559:	68 dd 3e 00 00       	push   $0x3edd
     55e:	ff 35 18 5e 00 00    	push   0x5e18
     564:	e8 a7 34 00 00       	call   3a10 <printf>
  i = read(fd, buf, 2000);
     569:	83 c4 0c             	add    $0xc,%esp
     56c:	68 d0 07 00 00       	push   $0x7d0
     571:	68 60 85 00 00       	push   $0x8560
     576:	53                   	push   %ebx
     577:	e8 4f 33 00 00       	call   38cb <read>
  if(i == 2000){
     57c:	83 c4 10             	add    $0x10,%esp
     57f:	3d d0 07 00 00       	cmp    $0x7d0,%eax
     584:	0f 85 94 00 00 00    	jne    61e <writetest+0x18e>
    printf(stdout, "read succeeded ok\n");
     58a:	83 ec 08             	sub    $0x8,%esp
     58d:	68 11 3f 00 00       	push   $0x3f11
     592:	ff 35 18 5e 00 00    	push   0x5e18
     598:	e8 73 34 00 00       	call   3a10 <printf>
  close(fd);
     59d:	89 1c 24             	mov    %ebx,(%esp)
     5a0:	e8 36 33 00 00       	call   38db <close>
  if(unlink("small") < 0){
     5a5:	c7 04 24 7f 3e 00 00 	movl   $0x3e7f,(%esp)
     5ac:	e8 52 33 00 00       	call   3903 <unlink>
     5b1:	83 c4 10             	add    $0x10,%esp
     5b4:	85 c0                	test   %eax,%eax
     5b6:	78 7d                	js     635 <writetest+0x1a5>
  printf(stdout, "small file test ok\n");
     5b8:	83 ec 08             	sub    $0x8,%esp
     5bb:	68 39 3f 00 00       	push   $0x3f39
     5c0:	ff 35 18 5e 00 00    	push   0x5e18
     5c6:	e8 45 34 00 00       	call   3a10 <printf>
}
     5cb:	83 c4 10             	add    $0x10,%esp
     5ce:	8d 65 f8             	lea    -0x8(%ebp),%esp
     5d1:	5b                   	pop    %ebx
     5d2:	5e                   	pop    %esi
     5d3:	5d                   	pop    %ebp
     5d4:	c3                   	ret
      printf(stdout, "error: write aa %d new file failed\n", i);
     5d5:	83 ec 04             	sub    $0x4,%esp
     5d8:	53                   	push   %ebx
     5d9:	68 80 4d 00 00       	push   $0x4d80
     5de:	ff 35 18 5e 00 00    	push   0x5e18
     5e4:	e8 27 34 00 00       	call   3a10 <printf>
      exit();
     5e9:	e8 c5 32 00 00       	call   38b3 <exit>
      printf(stdout, "error: write bb %d new file failed\n", i);
     5ee:	83 ec 04             	sub    $0x4,%esp
     5f1:	53                   	push   %ebx
     5f2:	68 a4 4d 00 00       	push   $0x4da4
     5f7:	ff 35 18 5e 00 00    	push   0x5e18
     5fd:	e8 0e 34 00 00       	call   3a10 <printf>
      exit();
     602:	e8 ac 32 00 00       	call   38b3 <exit>
    printf(stdout, "error: open small failed!\n");
     607:	51                   	push   %ecx
     608:	51                   	push   %ecx
     609:	68 f6 3e 00 00       	push   $0x3ef6
     60e:	ff 35 18 5e 00 00    	push   0x5e18
     614:	e8 f7 33 00 00       	call   3a10 <printf>
    exit();
     619:	e8 95 32 00 00       	call   38b3 <exit>
    printf(stdout, "read failed\n");
     61e:	52                   	push   %edx
     61f:	52                   	push   %edx
     620:	68 3d 42 00 00       	push   $0x423d
     625:	ff 35 18 5e 00 00    	push   0x5e18
     62b:	e8 e0 33 00 00       	call   3a10 <printf>
    exit();
     630:	e8 7e 32 00 00       	call   38b3 <exit>
    printf(stdout, "unlink small failed\n");
     635:	50                   	push   %eax
     636:	50                   	push   %eax
     637:	68 24 3f 00 00       	push   $0x3f24
     63c:	ff 35 18 5e 00 00    	push   0x5e18
     642:	e8 c9 33 00 00       	call   3a10 <printf>
    exit();
     647:	e8 67 32 00 00       	call   38b3 <exit>
    printf(stdout, "error: creat small failed!\n");
     64c:	50                   	push   %eax
     64d:	50                   	push   %eax
     64e:	68 a0 3e 00 00       	push   $0x3ea0
     653:	ff 35 18 5e 00 00    	push   0x5e18
     659:	e8 b2 33 00 00       	call   3a10 <printf>
    exit();
     65e:	e8 50 32 00 00       	call   38b3 <exit>
     663:	8d b4 26 00 00 00 00 	lea    0x0(%esi,%eiz,1),%esi
     66a:	8d b6 00 00 00 00    	lea    0x0(%esi),%esi

00000670 <writetest1>:
{
     670:	55                   	push   %ebp
     671:	89 e5                	mov    %esp,%ebp
     673:	56                   	push   %esi
     674:	53                   	push   %ebx
  printf(stdout, "big files test\n");
     675:	83 ec 08             	sub    $0x8,%esp
     678:	68 4d 3f 00 00       	push   $0x3f4d
     67d:	ff 35 18 5e 00 00    	push   0x5e18
     683:	e8 88 33 00 00       	call   3a10 <printf>
  fd = open("big", O_CREATE|O_RDWR);
     688:	58                   	pop    %eax
     689:	5a                   	pop    %edx
     68a:	68 02 02 00 00       	push   $0x202
     68f:	68 c7 3f 00 00       	push   $0x3fc7
     694:	e8 5a 32 00 00       	call   38f3 <open>
  if(fd < 0){
     699:	83 c4 10             	add    $0x10,%esp
     69c:	85 c0                	test   %eax,%eax
     69e:	0f 88 61 01 00 00    	js     805 <writetest1+0x195>
     6a4:	89 c6                	mov    %eax,%esi
  for(i = 0; i < MAXFILE; i++){
     6a6:	31 db                	xor    %ebx,%ebx
     6a8:	8d b4 26 00 00 00 00 	lea    0x0(%esi,%eiz,1),%esi
     6af:	90                   	nop
    if(write(fd, buf, 512) != 512){
     6b0:	83 ec 04             	sub    $0x4,%esp
    ((int*)buf)[0] = i;
     6b3:	89 1d 60 85 00 00    	mov    %ebx,0x8560
    if(write(fd, buf, 512) != 512){
     6b9:	68 00 02 00 00       	push   $0x200
     6be:	68 60 85 00 00       	push   $0x8560
     6c3:	56                   	push   %esi
     6c4:	e8 0a 32 00 00       	call   38d3 <write>
     6c9:	83 c4 10             	add    $0x10,%esp
     6cc:	3d 00 02 00 00       	cmp    $0x200,%eax
     6d1:	0f 85 b3 00 00 00    	jne    78a <writetest1+0x11a>
  for(i = 0; i < MAXFILE; i++){
     6d7:	83 c3 01             	add    $0x1,%ebx
     6da:	81 fb 0c 02 00 00    	cmp    $0x20c,%ebx
     6e0:	75 ce                	jne    6b0 <writetest1+0x40>
  close(fd);
     6e2:	83 ec 0c             	sub    $0xc,%esp
     6e5:	56                   	push   %esi
     6e6:	e8 f0 31 00 00       	call   38db <close>
  fd = open("big", O_RDONLY);
     6eb:	5b                   	pop    %ebx
     6ec:	5e                   	pop    %esi
     6ed:	6a 00                	push   $0x0
     6ef:	68 c7 3f 00 00       	push   $0x3fc7
     6f4:	e8 fa 31 00 00       	call   38f3 <open>
  if(fd < 0){
     6f9:	83 c4 10             	add    $0x10,%esp
  fd = open("big", O_RDONLY);
     6fc:	89 c3                	mov    %eax,%ebx
  if(fd < 0){
     6fe:	85 c0                	test   %eax,%eax
     700:	0f 88 e8 00 00 00    	js     7ee <writetest1+0x17e>
  n = 0;
     706:	31 f6                	xor    %esi,%esi
     708:	eb 1d                	jmp    727 <writetest1+0xb7>
     70a:	8d b6 00 00 00 00    	lea    0x0(%esi),%esi
    } else if(i != 512){
     710:	3d 00 02 00 00       	cmp    $0x200,%eax
     715:	0f 85 9f 00 00 00    	jne    7ba <writetest1+0x14a>
    if(((int*)buf)[0] != n){
     71b:	a1 60 85 00 00       	mov    0x8560,%eax
     720:	39 f0                	cmp    %esi,%eax
     722:	75 7f                	jne    7a3 <writetest1+0x133>
    n++;
     724:	83 c6 01             	add    $0x1,%esi
    i = read(fd, buf, 512);
     727:	83 ec 04             	sub    $0x4,%esp
     72a:	68 00 02 00 00       	push   $0x200
     72f:	68 60 85 00 00       	push   $0x8560
     734:	53                   	push   %ebx
     735:	e8 91 31 00 00       	call   38cb <read>
    if(i == 0){
     73a:	83 c4 10             	add    $0x10,%esp
     73d:	85 c0                	test   %eax,%eax
     73f:	75 cf                	jne    710 <writetest1+0xa0>
      if(n == MAXFILE - 1){
     741:	81 fe 0b 02 00 00    	cmp    $0x20b,%esi
     747:	0f 84 86 00 00 00    	je     7d3 <writetest1+0x163>
  close(fd);
     74d:	83 ec 0c             	sub    $0xc,%esp
     750:	53                   	push   %ebx
     751:	e8 85 31 00 00       	call   38db <close>
  if(unlink("big") < 0){
     756:	c7 04 24 c7 3f 00 00 	movl   $0x3fc7,(%esp)
     75d:	e8 a1 31 00 00       	call   3903 <unlink>
     762:	83 c4 10             	add    $0x10,%esp
     765:	85 c0                	test   %eax,%eax
     767:	0f 88 af 00 00 00    	js     81c <writetest1+0x1ac>
  printf(stdout, "big files ok\n");
     76d:	83 ec 08             	sub    $0x8,%esp
     770:	68 ee 3f 00 00       	push   $0x3fee
     775:	ff 35 18 5e 00 00    	push   0x5e18
     77b:	e8 90 32 00 00       	call   3a10 <printf>
}
     780:	83 c4 10             	add    $0x10,%esp
     783:	8d 65 f8             	lea    -0x8(%ebp),%esp
     786:	5b                   	pop    %ebx
     787:	5e                   	pop    %esi
     788:	5d                   	pop    %ebp
     789:	c3                   	ret
      printf(stdout, "error: write big file failed\n", i);
     78a:	83 ec 04             	sub    $0x4,%esp
     78d:	53                   	push   %ebx
     78e:	68 77 3f 00 00       	push   $0x3f77
     793:	ff 35 18 5e 00 00    	push   0x5e18
     799:	e8 72 32 00 00       	call   3a10 <printf>
      exit();
     79e:	e8 10 31 00 00       	call   38b3 <exit>
      printf(stdout, "read content of block %d is %d\n",
     7a3:	50                   	push   %eax
     7a4:	56                   	push   %esi
     7a5:	68 c8 4d 00 00       	push   $0x4dc8
     7aa:	ff 35 18 5e 00 00    	push   0x5e18
     7b0:	e8 5b 32 00 00       	call   3a10 <printf>
      exit();
     7b5:	e8 f9 30 00 00       	call   38b3 <exit>
      printf(stdout, "read failed %d\n", i);
     7ba:	83 ec 04             	sub    $0x4,%esp
     7bd:	50                   	push   %eax
     7be:	68 cb 3f 00 00       	push   $0x3fcb
     7c3:	ff 35 18 5e 00 00    	push   0x5e18
     7c9:	e8 42 32 00 00       	call   3a10 <printf>
      exit();
     7ce:	e8 e0 30 00 00       	call   38b3 <exit>
        printf(stdout, "read only %d blocks from big", n);
     7d3:	52                   	push   %edx
     7d4:	68 0b 02 00 00       	push   $0x20b
     7d9:	68 ae 3f 00 00       	push   $0x3fae
     7de:	ff 35 18 5e 00 00    	push   0x5e18
     7e4:	e8 27 32 00 00       	call   3a10 <printf>
        exit();
     7e9:	e8 c5 30 00 00       	call   38b3 <exit>
    printf(stdout, "error: open big failed!\n");
     7ee:	51                   	push   %ecx
     7ef:	51                   	push   %ecx
     7f0:	68 95 3f 00 00       	push   $0x3f95
     7f5:	ff 35 18 5e 00 00    	push   0x5e18
     7fb:	e8 10 32 00 00       	call   3a10 <printf>
    exit();
     800:	e8 ae 30 00 00       	call   38b3 <exit>
    printf(stdout, "error: creat big failed!\n");
     805:	50                   	push   %eax
     806:	50                   	push   %eax
     807:	68 5d 3f 00 00       	push   $0x3f5d
     80c:	ff 35 18 5e 00 00    	push   0x5e18
     812:	e8 f9 31 00 00       	call   3a10 <printf>
    exit();
     817:	e8 97 30 00 00       	call   38b3 <exit>
    printf(stdout, "unlink big failed\n");
     81c:	50                   	push   %eax
     81d:	50                   	push   %eax
     81e:	68 db 3f 00 00       	push   $0x3fdb
     823:	ff 35 18 5e 00 00    	push   0x5e18
     829:	e8 e2 31 00 00       	call   3a10 <printf>
    exit();
     82e:	e8 80 30 00 00       	call   38b3 <exit>
     833:	8d b4 26 00 00 00 00 	lea    0x0(%esi,%eiz,1),%esi
     83a:	8d b6 00 00 00 00    	lea    0x0(%esi),%esi

00000840 <createtest>:
{
     840:	55                   	push   %ebp
     841:	89 e5                	mov    %esp,%ebp
     843:	53                   	push   %ebx
  name[2] = '\0';
     844:	bb 30 00 00 00       	mov    $0x30,%ebx
{
     849:	83 ec 0c             	sub    $0xc,%esp
  printf(stdout, "many creates, followed by unlink test\n");
     84c:	68 e8 4d 00 00       	push   $0x4de8
     851:	ff 35 18 5e 00 00    	push   0x5e18
     857:	e8 b4 31 00 00       	call   3a10 <printf>
  name[0] = 'a';
     85c:	c6 05 50 85 00 00 61 	movb   $0x61,0x8550
  name[2] = '\0';
     863:	83 c4 10             	add    $0x10,%esp
     866:	c6 05 52 85 00 00 00 	movb   $0x0,0x8552
  for(i = 0; i < 52; i++){
     86d:	8d 76 00             	lea    0x0(%esi),%esi
    fd = open(name, O_CREATE|O_RDWR);
     870:	83 ec 08             	sub    $0x8,%esp
    name[1] = '0' + i;
     873:	88 1d 51 85 00 00    	mov    %bl,0x8551
  for(i = 0; i < 52; i++){
     879:	83 c3 01             	add    $0x1,%ebx
    fd = open(name, O_CREATE|O_RDWR);
     87c:	68 02 02 00 00       	push   $0x202
     881:	68 50 85 00 00       	push   $0x8550
     886:	e8 68 30 00 00       	call   38f3 <open>
    close(fd);
     88b:	89 04 24             	mov    %eax,(%esp)
     88e:	e8 48 30 00 00       	call   38db <close>
  for(i = 0; i < 52; i++){
     893:	83 c4 10             	add    $0x10,%esp
     896:	80 fb 64             	cmp    $0x64,%bl
     899:	75 d5                	jne    870 <createtest+0x30>
  name[0] = 'a';
     89b:	c6 05 50 85 00 00 61 	movb   $0x61,0x8550
  name[2] = '\0';
     8a2:	bb 30 00 00 00       	mov    $0x30,%ebx
     8a7:	c6 05 52 85 00 00 00 	movb   $0x0,0x8552
  for(i = 0; i < 52; i++){
     8ae:	66 90                	xchg   %ax,%ax
    unlink(name);
     8b0:	83 ec 0c             	sub    $0xc,%esp
    name[1] = '0' + i;
     8b3:	88 1d 51 85 00 00    	mov    %bl,0x8551
  for(i = 0; i < 52; i++){
     8b9:	83 c3 01             	add    $0x1,%ebx
    unlink(name);
     8bc:	68 50 85 00 00       	push   $0x8550
     8c1:	e8 3d 30 00 00       	call   3903 <unlink>
  for(i = 0; i < 52; i++){
     8c6:	83 c4 10             	add    $0x10,%esp
     8c9:	80 fb 64             	cmp    $0x64,%bl
     8cc:	75 e2                	jne    8b0 <createtest+0x70>
  printf(stdout, "many creates, followed by unlink; ok\n");
     8ce:	83 ec 08             	sub    $0x8,%esp
     8d1:	68 10 4e 00 00       	push   $0x4e10
     8d6:	ff 35 18 5e 00 00    	push   0x5e18
     8dc:	e8 2f 31 00 00       	call   3a10 <printf>
}
     8e1:	8b 5d fc             	mov    -0x4(%ebp),%ebx
     8e4:	83 c4 10             	add    $0x10,%esp
     8e7:	c9                   	leave
     8e8:	c3                   	ret
     8e9:	8d b4 26 00 00 00 00 	lea    0x0(%esi,%eiz,1),%esi

000008f0 <dirtest>:
{
     8f0:	55                   	push   %ebp
     8f1:	89 e5                	mov    %esp,%ebp
     8f3:	83 ec 10             	sub    $0x10,%esp
  printf(stdout, "mkdir test\n");
     8f6:	68 fc 3f 00 00       	push   $0x3ffc
     8fb:	ff 35 18 5e 00 00    	push   0x5e18
     901:	e8 0a 31 00 00       	call   3a10 <printf>
  if(mkdir("dir0") < 0){
     906:	c7 04 24 08 40 00 00 	movl   $0x4008,(%esp)
     90d:	e8 09 30 00 00       	call   391b <mkdir>
     912:	83 c4 10             	add    $0x10,%esp
     915:	85 c0                	test   %eax,%eax
     917:	78 58                	js     971 <dirtest+0x81>
  if(chdir("dir0") < 0){
     919:	83 ec 0c             	sub    $0xc,%esp
     91c:	68 08 40 00 00       	push   $0x4008
     921:	e8 fd 2f 00 00       	call   3923 <chdir>
     926:	83 c4 10             	add    $0x10,%esp
     929:	85 c0                	test   %eax,%eax
     92b:	0f 88 85 00 00 00    	js     9b6 <dirtest+0xc6>
  if(chdir("..") < 0){
     931:	83 ec 0c             	sub    $0xc,%esp
     934:	68 ad 45 00 00       	push   $0x45ad
     939:	e8 e5 2f 00 00       	call   3923 <chdir>
     93e:	83 c4 10             	add    $0x10,%esp
     941:	85 c0                	test   %eax,%eax
     943:	78 5a                	js     99f <dirtest+0xaf>
  if(unlink("dir0") < 0){
     945:	83 ec 0c             	sub    $0xc,%esp
     948:	68 08 40 00 00       	push   $0x4008
     94d:	e8 b1 2f 00 00       	call   3903 <unlink>
     952:	83 c4 10             	add    $0x10,%esp
     955:	85 c0                	test   %eax,%eax
     957:	78 2f                	js     988 <dirtest+0x98>
  printf(stdout, "mkdir test ok\n");
     959:	83 ec 08             	sub    $0x8,%esp
     95c:	68 45 40 00 00       	push   $0x4045
     961:	ff 35 18 5e 00 00    	push   0x5e18
     967:	e8 a4 30 00 00       	call   3a10 <printf>
}
     96c:	83 c4 10             	add    $0x10,%esp
     96f:	c9                   	leave
     970:	c3                   	ret
    printf(stdout, "mkdir failed\n");
     971:	50                   	push   %eax
     972:	50                   	push   %eax
     973:	68 38 3d 00 00       	push   $0x3d38
     978:	ff 35 18 5e 00 00    	push   0x5e18
     97e:	e8 8d 30 00 00       	call   3a10 <printf>
    exit();
     983:	e8 2b 2f 00 00       	call   38b3 <exit>
    printf(stdout, "unlink dir0 failed\n");
     988:	50                   	push   %eax
     989:	50                   	push   %eax
     98a:	68 31 40 00 00       	push   $0x4031
     98f:	ff 35 18 5e 00 00    	push   0x5e18
     995:	e8 76 30 00 00       	call   3a10 <printf>
    exit();
     99a:	e8 14 2f 00 00       	call   38b3 <exit>
    printf(stdout, "chdir .. failed\n");
     99f:	52                   	push   %edx
     9a0:	52                   	push   %edx
     9a1:	68 20 40 00 00       	push   $0x4020
     9a6:	ff 35 18 5e 00 00    	push   0x5e18
     9ac:	e8 5f 30 00 00       	call   3a10 <printf>
    exit();
     9b1:	e8 fd 2e 00 00       	call   38b3 <exit>
    printf(stdout, "chdir dir0 failed\n");
     9b6:	51                   	push   %ecx
     9b7:	51                   	push   %ecx
     9b8:	68 0d 40 00 00       	push   $0x400d
     9bd:	ff 35 18 5e 00 00    	push   0x5e18
     9c3:	e8 48 30 00 00       	call   3a10 <printf>
    exit();
     9c8:	e8 e6 2e 00 00       	call   38b3 <exit>
     9cd:	8d 76 00             	lea    0x0(%esi),%esi

000009d0 <exectest>:
{
     9d0:	55                   	push   %ebp
     9d1:	89 e5                	mov    %esp,%ebp
     9d3:	83 ec 10             	sub    $0x10,%esp
  printf(stdout, "exec test\n");
     9d6:	68 54 40 00 00       	push   $0x4054
     9db:	ff 35 18 5e 00 00    	push   0x5e18
     9e1:	e8 2a 30 00 00       	call   3a10 <printf>
  if(exec("echo", echoargv) < 0){
     9e6:	5a                   	pop    %edx
     9e7:	59                   	pop    %ecx
     9e8:	68 1c 5e 00 00       	push   $0x5e1c
     9ed:	68 1d 3e 00 00       	push   $0x3e1d
     9f2:	e8 f4 2e 00 00       	call   38eb <exec>
     9f7:	83 c4 10             	add    $0x10,%esp
     9fa:	85 c0                	test   %eax,%eax
     9fc:	78 02                	js     a00 <exectest+0x30>
}
     9fe:	c9                   	leave
     9ff:	c3                   	ret
    printf(stdout, "exec echo failed\n");
     a00:	50                   	push   %eax
     a01:	50                   	push   %eax
     a02:	68 5f 40 00 00       	push   $0x405f
     a07:	ff 35 18 5e 00 00    	push   0x5e18
     a0d:	e8 fe 2f 00 00       	call   3a10 <printf>
    exit();
     a12:	e8 9c 2e 00 00       	call   38b3 <exit>
     a17:	8d b4 26 00 00 00 00 	lea    0x0(%esi,%eiz,1),%esi
     a1e:	66 90                	xchg   %ax,%ax

00000a20 <pipe1>:
{
     a20:	55                   	push   %ebp
     a21:	89 e5                	mov    %esp,%ebp
     a23:	57                   	push   %edi
     a24:	56                   	push   %esi
  if(pipe(fds) != 0){
     a25:	8d 45 e0             	lea    -0x20(%ebp),%eax
{
     a28:	53                   	push   %ebx
     a29:	83 ec 28             	sub    $0x28,%esp
  if(pipe(fds) != 0){
     a2c:	50                   	push   %eax
     a2d:	e8 91 2e 00 00       	call   38c3 <pipe>
     a32:	83 c4 10             	add    $0x10,%esp
     a35:	85 c0                	test   %eax,%eax
     a37:	0f 85 41 01 00 00    	jne    b7e <pipe1+0x15e>
     a3d:	89 c6                	mov    %eax,%esi
  pid = fork();
     a3f:	e8 67 2e 00 00       	call   38ab <fork>
  if(pid == 0){
     a44:	85 c0                	test   %eax,%eax
     a46:	0f 84 92 00 00 00    	je     ade <pipe1+0xbe>
  } else if(pid > 0){
     a4c:	0f 8e 3f 01 00 00    	jle    b91 <pipe1+0x171>
    close(fds[1]);
     a52:	83 ec 0c             	sub    $0xc,%esp
     a55:	ff 75 e4             	push   -0x1c(%ebp)
    total = 0;
     a58:	31 db                	xor    %ebx,%ebx
    cc = 1;
     a5a:	bf 01 00 00 00       	mov    $0x1,%edi
    close(fds[1]);
     a5f:	e8 77 2e 00 00       	call   38db <close>
    while((n = read(fds[0], buf, cc)) > 0){
     a64:	83 c4 10             	add    $0x10,%esp
     a67:	83 ec 04             	sub    $0x4,%esp
     a6a:	57                   	push   %edi
     a6b:	68 60 85 00 00       	push   $0x8560
     a70:	ff 75 e0             	push   -0x20(%ebp)
     a73:	e8 53 2e 00 00       	call   38cb <read>
     a78:	83 c4 10             	add    $0x10,%esp
     a7b:	89 c1                	mov    %eax,%ecx
     a7d:	85 c0                	test   %eax,%eax
     a7f:	0f 8e b8 00 00 00    	jle    b3d <pipe1+0x11d>
        if((buf[i] & 0xff) != (seq++ & 0xff)){
     a85:	89 f0                	mov    %esi,%eax
     a87:	32 05 60 85 00 00    	xor    0x8560,%al
     a8d:	0f b6 c0             	movzbl %al,%eax
     a90:	85 c0                	test   %eax,%eax
     a92:	75 30                	jne    ac4 <pipe1+0xa4>
     a94:	83 c6 01             	add    $0x1,%esi
     a97:	eb 0f                	jmp    aa8 <pipe1+0x88>
     a99:	8d b4 26 00 00 00 00 	lea    0x0(%esi,%eiz,1),%esi
     aa0:	38 90 60 85 00 00    	cmp    %dl,0x8560(%eax)
     aa6:	75 1c                	jne    ac4 <pipe1+0xa4>
     aa8:	8d 14 06             	lea    (%esi,%eax,1),%edx
      for(i = 0; i < n; i++){
     aab:	83 c0 01             	add    $0x1,%eax
     aae:	39 c1                	cmp    %eax,%ecx
     ab0:	75 ee                	jne    aa0 <pipe1+0x80>
      cc = cc * 2;
     ab2:	01 ff                	add    %edi,%edi
      if(cc > sizeof(buf))
     ab4:	b8 00 20 00 00       	mov    $0x2000,%eax
      total += n;
     ab9:	01 cb                	add    %ecx,%ebx
      if(cc > sizeof(buf))
     abb:	89 d6                	mov    %edx,%esi
     abd:	39 c7                	cmp    %eax,%edi
     abf:	0f 4f f8             	cmovg  %eax,%edi
     ac2:	eb a3                	jmp    a67 <pipe1+0x47>
          printf(1, "pipe1 oops 2\n");
     ac4:	83 ec 08             	sub    $0x8,%esp
     ac7:	68 8e 40 00 00       	push   $0x408e
     acc:	6a 01                	push   $0x1
     ace:	e8 3d 2f 00 00       	call   3a10 <printf>
     ad3:	83 c4 10             	add    $0x10,%esp
}
     ad6:	8d 65 f4             	lea    -0xc(%ebp),%esp
     ad9:	5b                   	pop    %ebx
     ada:	5e                   	pop    %esi
     adb:	5f                   	pop    %edi
     adc:	5d                   	pop    %ebp
     add:	c3                   	ret
    close(fds[0]);
     ade:	83 ec 0c             	sub    $0xc,%esp
     ae1:	ff 75 e0             	push   -0x20(%ebp)
  seq = 0;
     ae4:	31 db                	xor    %ebx,%ebx
    close(fds[0]);
     ae6:	e8 f0 2d 00 00       	call   38db <close>
     aeb:	83 c4 10             	add    $0x10,%esp
     aee:	66 90                	xchg   %ax,%ax
      for(i = 0; i < 1033; i++)
     af0:	31 c0                	xor    %eax,%eax
     af2:	8d b6 00 00 00 00    	lea    0x0(%esi),%esi
        buf[i] = seq++;
     af8:	8d 14 03             	lea    (%ebx,%eax,1),%edx
      for(i = 0; i < 1033; i++)
     afb:	83 c0 01             	add    $0x1,%eax
        buf[i] = seq++;
     afe:	88 90 5f 85 00 00    	mov    %dl,0x855f(%eax)
      for(i = 0; i < 1033; i++)
     b04:	3d 09 04 00 00       	cmp    $0x409,%eax
     b09:	75 ed                	jne    af8 <pipe1+0xd8>
      if(write(fds[1], buf, 1033) != 1033){
     b0b:	83 ec 04             	sub    $0x4,%esp
        buf[i] = seq++;
     b0e:	81 c3 09 04 00 00    	add    $0x409,%ebx
      if(write(fds[1], buf, 1033) != 1033){
     b14:	68 09 04 00 00       	push   $0x409
     b19:	68 60 85 00 00       	push   $0x8560
     b1e:	ff 75 e4             	push   -0x1c(%ebp)
     b21:	e8 ad 2d 00 00       	call   38d3 <write>
     b26:	83 c4 10             	add    $0x10,%esp
     b29:	3d 09 04 00 00       	cmp    $0x409,%eax
     b2e:	75 74                	jne    ba4 <pipe1+0x184>
    for(n = 0; n < 5; n++){
     b30:	81 fb 2d 14 00 00    	cmp    $0x142d,%ebx
     b36:	75 b8                	jne    af0 <pipe1+0xd0>
    exit();
     b38:	e8 76 2d 00 00       	call   38b3 <exit>
    if(total != 5 * 1033){
     b3d:	81 fb 2d 14 00 00    	cmp    $0x142d,%ebx
     b43:	75 26                	jne    b6b <pipe1+0x14b>
    close(fds[0]);
     b45:	83 ec 0c             	sub    $0xc,%esp
     b48:	ff 75 e0             	push   -0x20(%ebp)
     b4b:	e8 8b 2d 00 00       	call   38db <close>
    wait();
     b50:	e8 66 2d 00 00       	call   38bb <wait>
  printf(1, "pipe1 ok\n");
     b55:	5a                   	pop    %edx
     b56:	59                   	pop    %ecx
     b57:	68 b3 40 00 00       	push   $0x40b3
     b5c:	6a 01                	push   $0x1
     b5e:	e8 ad 2e 00 00       	call   3a10 <printf>
     b63:	83 c4 10             	add    $0x10,%esp
     b66:	e9 6b ff ff ff       	jmp    ad6 <pipe1+0xb6>
      printf(1, "pipe1 oops 3 total %d\n", total);
     b6b:	56                   	push   %esi
     b6c:	53                   	push   %ebx
     b6d:	68 9c 40 00 00       	push   $0x409c
     b72:	6a 01                	push   $0x1
     b74:	e8 97 2e 00 00       	call   3a10 <printf>
      exit();
     b79:	e8 35 2d 00 00       	call   38b3 <exit>
    printf(1, "pipe() failed\n");
     b7e:	50                   	push   %eax
     b7f:	50                   	push   %eax
     b80:	68 71 40 00 00       	push   $0x4071
     b85:	6a 01                	push   $0x1
     b87:	e8 84 2e 00 00       	call   3a10 <printf>
    exit();
     b8c:	e8 22 2d 00 00       	call   38b3 <exit>
    printf(1, "fork() failed\n");
     b91:	50                   	push   %eax
     b92:	50                   	push   %eax
     b93:	68 bd 40 00 00       	push   $0x40bd
     b98:	6a 01                	push   $0x1
     b9a:	e8 71 2e 00 00       	call   3a10 <printf>
    exit();
     b9f:	e8 0f 2d 00 00       	call   38b3 <exit>
        printf(1, "pipe1 oops 1\n");
     ba4:	57                   	push   %edi
     ba5:	57                   	push   %edi
     ba6:	68 80 40 00 00       	push   $0x4080
     bab:	6a 01                	push   $0x1
     bad:	e8 5e 2e 00 00       	call   3a10 <printf>
        exit();
     bb2:	e8 fc 2c 00 00       	call   38b3 <exit>
     bb7:	8d b4 26 00 00 00 00 	lea    0x0(%esi,%eiz,1),%esi
     bbe:	66 90                	xchg   %ax,%ax

00000bc0 <preempt>:
{
     bc0:	55                   	push   %ebp
     bc1:	89 e5                	mov    %esp,%ebp
     bc3:	57                   	push   %edi
     bc4:	56                   	push   %esi
     bc5:	53                   	push   %ebx
     bc6:	83 ec 24             	sub    $0x24,%esp
  printf(1, "preempt: ");
     bc9:	68 cc 40 00 00       	push   $0x40cc
     bce:	6a 01                	push   $0x1
     bd0:	e8 3b 2e 00 00       	call   3a10 <printf>
  pid1 = fork();
     bd5:	e8 d1 2c 00 00       	call   38ab <fork>
  if(pid1 == 0)
     bda:	83 c4 10             	add    $0x10,%esp
     bdd:	85 c0                	test   %eax,%eax
     bdf:	75 07                	jne    be8 <preempt+0x28>
    for(;;)
     be1:	eb fe                	jmp    be1 <preempt+0x21>
     be3:	8d 74 26 00          	lea    0x0(%esi,%eiz,1),%esi
     be7:	90                   	nop
     be8:	89 c3                	mov    %eax,%ebx
  pid2 = fork();
     bea:	e8 bc 2c 00 00       	call   38ab <fork>
     bef:	89 c6                	mov    %eax,%esi
  if(pid2 == 0)
     bf1:	85 c0                	test   %eax,%eax
     bf3:	75 0b                	jne    c00 <preempt+0x40>
    for(;;)
     bf5:	eb fe                	jmp    bf5 <preempt+0x35>
     bf7:	8d b4 26 00 00 00 00 	lea    0x0(%esi,%eiz,1),%esi
     bfe:	66 90                	xchg   %ax,%ax
  pipe(pfds);
     c00:	83 ec 0c             	sub    $0xc,%esp
     c03:	8d 45 e0             	lea    -0x20(%ebp),%eax
     c06:	50                   	push   %eax
     c07:	e8 b7 2c 00 00       	call   38c3 <pipe>
  pid3 = fork();
     c0c:	e8 9a 2c 00 00       	call   38ab <fork>
  if(pid3 == 0){
     c11:	83 c4 10             	add    $0x10,%esp
  pid3 = fork();
     c14:	89 c7                	mov    %eax,%edi
  if(pid3 == 0){
     c16:	85 c0                	test   %eax,%eax
     c18:	75 3e                	jne    c58 <preempt+0x98>
    close(pfds[0]);
     c1a:	83 ec 0c             	sub    $0xc,%esp
     c1d:	ff 75 e0             	push   -0x20(%ebp)
     c20:	e8 b6 2c 00 00       	call   38db <close>
    if(write(pfds[1], "x", 1) != 1)
     c25:	83 c4 0c             	add    $0xc,%esp
     c28:	6a 01                	push   $0x1
     c2a:	68 91 46 00 00       	push   $0x4691
     c2f:	ff 75 e4             	push   -0x1c(%ebp)
     c32:	e8 9c 2c 00 00       	call   38d3 <write>
     c37:	83 c4 10             	add    $0x10,%esp
     c3a:	83 f8 01             	cmp    $0x1,%eax
     c3d:	0f 85 b8 00 00 00    	jne    cfb <preempt+0x13b>
    close(pfds[1]);
     c43:	83 ec 0c             	sub    $0xc,%esp
     c46:	ff 75 e4             	push   -0x1c(%ebp)
     c49:	e8 8d 2c 00 00       	call   38db <close>
     c4e:	83 c4 10             	add    $0x10,%esp
    for(;;)
     c51:	eb fe                	jmp    c51 <preempt+0x91>
     c53:	8d 74 26 00          	lea    0x0(%esi,%eiz,1),%esi
     c57:	90                   	nop
  close(pfds[1]);
     c58:	83 ec 0c             	sub    $0xc,%esp
     c5b:	ff 75 e4             	push   -0x1c(%ebp)
     c5e:	e8 78 2c 00 00       	call   38db <close>
  if(read(pfds[0], buf, sizeof(buf)) != 1){
     c63:	83 c4 0c             	add    $0xc,%esp
     c66:	68 00 20 00 00       	push   $0x2000
     c6b:	68 60 85 00 00       	push   $0x8560
     c70:	ff 75 e0             	push   -0x20(%ebp)
     c73:	e8 53 2c 00 00       	call   38cb <read>
     c78:	83 c4 10             	add    $0x10,%esp
     c7b:	83 f8 01             	cmp    $0x1,%eax
     c7e:	75 67                	jne    ce7 <preempt+0x127>
  close(pfds[0]);
     c80:	83 ec 0c             	sub    $0xc,%esp
     c83:	ff 75 e0             	push   -0x20(%ebp)
     c86:	e8 50 2c 00 00       	call   38db <close>
  printf(1, "kill... ");
     c8b:	58                   	pop    %eax
     c8c:	5a                   	pop    %edx
     c8d:	68 fd 40 00 00       	push   $0x40fd
     c92:	6a 01                	push   $0x1
     c94:	e8 77 2d 00 00       	call   3a10 <printf>
  kill(pid1);
     c99:	89 1c 24             	mov    %ebx,(%esp)
     c9c:	e8 42 2c 00 00       	call   38e3 <kill>
  kill(pid2);
     ca1:	89 34 24             	mov    %esi,(%esp)
     ca4:	e8 3a 2c 00 00       	call   38e3 <kill>
  kill(pid3);
     ca9:	89 3c 24             	mov    %edi,(%esp)
     cac:	e8 32 2c 00 00       	call   38e3 <kill>
  printf(1, "wait... ");
     cb1:	59                   	pop    %ecx
     cb2:	5b                   	pop    %ebx
     cb3:	68 06 41 00 00       	push   $0x4106
     cb8:	6a 01                	push   $0x1
     cba:	e8 51 2d 00 00       	call   3a10 <printf>
  wait();
     cbf:	e8 f7 2b 00 00       	call   38bb <wait>
  wait();
     cc4:	e8 f2 2b 00 00       	call   38bb <wait>
  wait();
     cc9:	e8 ed 2b 00 00       	call   38bb <wait>
  printf(1, "preempt ok\n");
     cce:	5e                   	pop    %esi
     ccf:	5f                   	pop    %edi
     cd0:	68 0f 41 00 00       	push   $0x410f
     cd5:	6a 01                	push   $0x1
     cd7:	e8 34 2d 00 00       	call   3a10 <printf>
     cdc:	83 c4 10             	add    $0x10,%esp
}
     cdf:	8d 65 f4             	lea    -0xc(%ebp),%esp
     ce2:	5b                   	pop    %ebx
     ce3:	5e                   	pop    %esi
     ce4:	5f                   	pop    %edi
     ce5:	5d                   	pop    %ebp
     ce6:	c3                   	ret
    printf(1, "preempt read error");
     ce7:	83 ec 08             	sub    $0x8,%esp
     cea:	68 ea 40 00 00       	push   $0x40ea
     cef:	6a 01                	push   $0x1
     cf1:	e8 1a 2d 00 00       	call   3a10 <printf>
     cf6:	83 c4 10             	add    $0x10,%esp
     cf9:	eb e4                	jmp    cdf <preempt+0x11f>
      printf(1, "preempt write error");
     cfb:	83 ec 08             	sub    $0x8,%esp
     cfe:	68 d6 40 00 00       	push   $0x40d6
     d03:	6a 01                	push   $0x1
     d05:	e8 06 2d 00 00       	call   3a10 <printf>
     d0a:	83 c4 10             	add    $0x10,%esp
     d0d:	e9 31 ff ff ff       	jmp    c43 <preempt+0x83>
     d12:	8d b4 26 00 00 00 00 	lea    0x0(%esi,%eiz,1),%esi
     d19:	8d b4 26 00 00 00 00 	lea    0x0(%esi,%eiz,1),%esi

00000d20 <exitwait>:
{
     d20:	55                   	push   %ebp
     d21:	89 e5                	mov    %esp,%ebp
     d23:	56                   	push   %esi
     d24:	be 64 00 00 00       	mov    $0x64,%esi
     d29:	53                   	push   %ebx
     d2a:	eb 14                	jmp    d40 <exitwait+0x20>
     d2c:	8d 74 26 00          	lea    0x0(%esi,%eiz,1),%esi
    if(pid){
     d30:	74 68                	je     d9a <exitwait+0x7a>
      if(wait() != pid){
     d32:	e8 84 2b 00 00       	call   38bb <wait>
     d37:	39 d8                	cmp    %ebx,%eax
     d39:	75 2d                	jne    d68 <exitwait+0x48>
  for(i = 0; i < 100; i++){
     d3b:	83 ee 01             	sub    $0x1,%esi
     d3e:	74 41                	je     d81 <exitwait+0x61>
    pid = fork();
     d40:	e8 66 2b 00 00       	call   38ab <fork>
     d45:	89 c3                	mov    %eax,%ebx
    if(pid < 0){
     d47:	85 c0                	test   %eax,%eax
     d49:	79 e5                	jns    d30 <exitwait+0x10>
      printf(1, "fork failed\n");
     d4b:	83 ec 08             	sub    $0x8,%esp
     d4e:	68 79 4c 00 00       	push   $0x4c79
     d53:	6a 01                	push   $0x1
     d55:	e8 b6 2c 00 00       	call   3a10 <printf>
      return;
     d5a:	83 c4 10             	add    $0x10,%esp
}
     d5d:	8d 65 f8             	lea    -0x8(%ebp),%esp
     d60:	5b                   	pop    %ebx
     d61:	5e                   	pop    %esi
     d62:	5d                   	pop    %ebp
     d63:	c3                   	ret
     d64:	8d 74 26 00          	lea    0x0(%esi,%eiz,1),%esi
        printf(1, "wait wrong pid\n");
     d68:	83 ec 08             	sub    $0x8,%esp
     d6b:	68 1b 41 00 00       	push   $0x411b
     d70:	6a 01                	push   $0x1
     d72:	e8 99 2c 00 00       	call   3a10 <printf>
        return;
     d77:	83 c4 10             	add    $0x10,%esp
}
     d7a:	8d 65 f8             	lea    -0x8(%ebp),%esp
     d7d:	5b                   	pop    %ebx
     d7e:	5e                   	pop    %esi
     d7f:	5d                   	pop    %ebp
     d80:	c3                   	ret
  printf(1, "exitwait ok\n");
     d81:	83 ec 08             	sub    $0x8,%esp
     d84:	68 2b 41 00 00       	push   $0x412b
     d89:	6a 01                	push   $0x1
     d8b:	e8 80 2c 00 00       	call   3a10 <printf>
     d90:	83 c4 10             	add    $0x10,%esp
}
     d93:	8d 65 f8             	lea    -0x8(%ebp),%esp
     d96:	5b                   	pop    %ebx
     d97:	5e                   	pop    %esi
     d98:	5d                   	pop    %ebp
     d99:	c3                   	ret
      exit();
     d9a:	e8 14 2b 00 00       	call   38b3 <exit>
     d9f:	90                   	nop

00000da0 <mem>:
{
     da0:	55                   	push   %ebp
     da1:	89 e5                	mov    %esp,%ebp
     da3:	56                   	push   %esi
     da4:	31 f6                	xor    %esi,%esi
     da6:	53                   	push   %ebx
  printf(1, "mem test\n");
     da7:	83 ec 08             	sub    $0x8,%esp
     daa:	68 38 41 00 00       	push   $0x4138
     daf:	6a 01                	push   $0x1
     db1:	e8 5a 2c 00 00       	call   3a10 <printf>
  ppid = getpid();
     db6:	e8 78 2b 00 00       	call   3933 <getpid>
     dbb:	89 c3                	mov    %eax,%ebx
  if((pid = fork()) == 0){
     dbd:	e8 e9 2a 00 00       	call   38ab <fork>
     dc2:	83 c4 10             	add    $0x10,%esp
     dc5:	85 c0                	test   %eax,%eax
     dc7:	74 0b                	je     dd4 <mem+0x34>
     dc9:	e9 8a 00 00 00       	jmp    e58 <mem+0xb8>
     dce:	66 90                	xchg   %ax,%ax
      *(char**)m2 = m1;
     dd0:	89 30                	mov    %esi,(%eax)
     dd2:	89 c6                	mov    %eax,%esi
    while((m2 = malloc(10001)) != 0){
     dd4:	83 ec 0c             	sub    $0xc,%esp
     dd7:	68 11 27 00 00       	push   $0x2711
     ddc:	e8 6f 2e 00 00       	call   3c50 <malloc>
     de1:	83 c4 10             	add    $0x10,%esp
     de4:	85 c0                	test   %eax,%eax
     de6:	75 e8                	jne    dd0 <mem+0x30>
    while(m1){
     de8:	85 f6                	test   %esi,%esi
     dea:	74 18                	je     e04 <mem+0x64>
     dec:	8d 74 26 00          	lea    0x0(%esi,%eiz,1),%esi
      m2 = *(char**)m1;
     df0:	89 f0                	mov    %esi,%eax
      free(m1);
     df2:	83 ec 0c             	sub    $0xc,%esp
      m2 = *(char**)m1;
     df5:	8b 36                	mov    (%esi),%esi
      free(m1);
     df7:	50                   	push   %eax
     df8:	e8 c3 2d 00 00       	call   3bc0 <free>
    while(m1){
     dfd:	83 c4 10             	add    $0x10,%esp
     e00:	85 f6                	test   %esi,%esi
     e02:	75 ec                	jne    df0 <mem+0x50>
    m1 = malloc(1024*20);
     e04:	83 ec 0c             	sub    $0xc,%esp
     e07:	68 00 50 00 00       	push   $0x5000
     e0c:	e8 3f 2e 00 00       	call   3c50 <malloc>
    if(m1 == 0){
     e11:	83 c4 10             	add    $0x10,%esp
     e14:	85 c0                	test   %eax,%eax
     e16:	74 20                	je     e38 <mem+0x98>
    free(m1);
     e18:	83 ec 0c             	sub    $0xc,%esp
     e1b:	50                   	push   %eax
     e1c:	e8 9f 2d 00 00       	call   3bc0 <free>
    printf(1, "mem ok\n");
     e21:	58                   	pop    %eax
     e22:	5a                   	pop    %edx
     e23:	68 5c 41 00 00       	push   $0x415c
     e28:	6a 01                	push   $0x1
     e2a:	e8 e1 2b 00 00       	call   3a10 <printf>
    exit();
     e2f:	e8 7f 2a 00 00       	call   38b3 <exit>
     e34:	8d 74 26 00          	lea    0x0(%esi,%eiz,1),%esi
      printf(1, "couldn't allocate mem?!!\n");
     e38:	83 ec 08             	sub    $0x8,%esp
     e3b:	68 42 41 00 00       	push   $0x4142
     e40:	6a 01                	push   $0x1
     e42:	e8 c9 2b 00 00       	call   3a10 <printf>
      kill(ppid);
     e47:	89 1c 24             	mov    %ebx,(%esp)
     e4a:	e8 94 2a 00 00       	call   38e3 <kill>
      exit();
     e4f:	e8 5f 2a 00 00       	call   38b3 <exit>
     e54:	8d 74 26 00          	lea    0x0(%esi,%eiz,1),%esi
}
     e58:	8d 65 f8             	lea    -0x8(%ebp),%esp
     e5b:	5b                   	pop    %ebx
     e5c:	5e                   	pop    %esi
     e5d:	5d                   	pop    %ebp
    wait();
     e5e:	e9 58 2a 00 00       	jmp    38bb <wait>
     e63:	8d b4 26 00 00 00 00 	lea    0x0(%esi,%eiz,1),%esi
     e6a:	8d b6 00 00 00 00    	lea    0x0(%esi),%esi

00000e70 <sharedfd>:
{
     e70:	55                   	push   %ebp
     e71:	89 e5                	mov    %esp,%ebp
     e73:	57                   	push   %edi
     e74:	56                   	push   %esi
     e75:	53                   	push   %ebx
     e76:	83 ec 34             	sub    $0x34,%esp
  printf(1, "sharedfd test\n");
     e79:	68 64 41 00 00       	push   $0x4164
     e7e:	6a 01                	push   $0x1
     e80:	e8 8b 2b 00 00       	call   3a10 <printf>
  unlink("sharedfd");
     e85:	c7 04 24 73 41 00 00 	movl   $0x4173,(%esp)
     e8c:	e8 72 2a 00 00       	call   3903 <unlink>
  fd = open("sharedfd", O_CREATE|O_RDWR);
     e91:	5b                   	pop    %ebx
     e92:	5e                   	pop    %esi
     e93:	68 02 02 00 00       	push   $0x202
     e98:	68 73 41 00 00       	push   $0x4173
     e9d:	e8 51 2a 00 00       	call   38f3 <open>
  if(fd < 0){
     ea2:	83 c4 10             	add    $0x10,%esp
     ea5:	85 c0                	test   %eax,%eax
     ea7:	0f 88 2a 01 00 00    	js     fd7 <sharedfd+0x167>
     ead:	89 c7                	mov    %eax,%edi
  memset(buf, pid==0?'c':'p', sizeof(buf));
     eaf:	8d 75 de             	lea    -0x22(%ebp),%esi
     eb2:	bb e8 03 00 00       	mov    $0x3e8,%ebx
  pid = fork();
     eb7:	e8 ef 29 00 00       	call   38ab <fork>
  memset(buf, pid==0?'c':'p', sizeof(buf));
     ebc:	83 f8 01             	cmp    $0x1,%eax
  pid = fork();
     ebf:	89 45 d4             	mov    %eax,-0x2c(%ebp)
  memset(buf, pid==0?'c':'p', sizeof(buf));
     ec2:	19 c0                	sbb    %eax,%eax
     ec4:	83 ec 04             	sub    $0x4,%esp
     ec7:	83 e0 f3             	and    $0xfffffff3,%eax
     eca:	6a 0a                	push   $0xa
     ecc:	83 c0 70             	add    $0x70,%eax
     ecf:	50                   	push   %eax
     ed0:	56                   	push   %esi
     ed1:	e8 5a 28 00 00       	call   3730 <memset>
     ed6:	83 c4 10             	add    $0x10,%esp
     ed9:	eb 0a                	jmp    ee5 <sharedfd+0x75>
     edb:	8d 74 26 00          	lea    0x0(%esi,%eiz,1),%esi
     edf:	90                   	nop
  for(i = 0; i < 1000; i++){
     ee0:	83 eb 01             	sub    $0x1,%ebx
     ee3:	74 26                	je     f0b <sharedfd+0x9b>
    if(write(fd, buf, sizeof(buf)) != sizeof(buf)){
     ee5:	83 ec 04             	sub    $0x4,%esp
     ee8:	6a 0a                	push   $0xa
     eea:	56                   	push   %esi
     eeb:	57                   	push   %edi
     eec:	e8 e2 29 00 00       	call   38d3 <write>
     ef1:	83 c4 10             	add    $0x10,%esp
     ef4:	83 f8 0a             	cmp    $0xa,%eax
     ef7:	74 e7                	je     ee0 <sharedfd+0x70>
      printf(1, "fstests: write sharedfd failed\n");
     ef9:	83 ec 08             	sub    $0x8,%esp
     efc:	68 64 4e 00 00       	push   $0x4e64
     f01:	6a 01                	push   $0x1
     f03:	e8 08 2b 00 00       	call   3a10 <printf>
      break;
     f08:	83 c4 10             	add    $0x10,%esp
  if(pid == 0)
     f0b:	8b 4d d4             	mov    -0x2c(%ebp),%ecx
     f0e:	85 c9                	test   %ecx,%ecx
     f10:	0f 84 f5 00 00 00    	je     100b <sharedfd+0x19b>
    wait();
     f16:	e8 a0 29 00 00       	call   38bb <wait>
  close(fd);
     f1b:	83 ec 0c             	sub    $0xc,%esp
  nc = np = 0;
     f1e:	31 db                	xor    %ebx,%ebx
  close(fd);
     f20:	57                   	push   %edi
     f21:	8d 7d e8             	lea    -0x18(%ebp),%edi
     f24:	e8 b2 29 00 00       	call   38db <close>
  fd = open("sharedfd", 0);
     f29:	58                   	pop    %eax
     f2a:	5a                   	pop    %edx
     f2b:	6a 00                	push   $0x0
     f2d:	68 73 41 00 00       	push   $0x4173
     f32:	e8 bc 29 00 00       	call   38f3 <open>
  if(fd < 0){
     f37:	83 c4 10             	add    $0x10,%esp
  nc = np = 0;
     f3a:	31 d2                	xor    %edx,%edx
  fd = open("sharedfd", 0);
     f3c:	89 45 d0             	mov    %eax,-0x30(%ebp)
  if(fd < 0){
     f3f:	85 c0                	test   %eax,%eax
     f41:	0f 88 aa 00 00 00    	js     ff1 <sharedfd+0x181>
     f47:	8d b4 26 00 00 00 00 	lea    0x0(%esi,%eiz,1),%esi
     f4e:	66 90                	xchg   %ax,%ax
  while((n = read(fd, buf, sizeof(buf))) > 0){
     f50:	83 ec 04             	sub    $0x4,%esp
     f53:	89 55 d4             	mov    %edx,-0x2c(%ebp)
     f56:	6a 0a                	push   $0xa
     f58:	56                   	push   %esi
     f59:	ff 75 d0             	push   -0x30(%ebp)
     f5c:	e8 6a 29 00 00       	call   38cb <read>
     f61:	83 c4 10             	add    $0x10,%esp
     f64:	85 c0                	test   %eax,%eax
     f66:	7e 28                	jle    f90 <sharedfd+0x120>
     f68:	8b 55 d4             	mov    -0x2c(%ebp),%edx
     f6b:	89 f0                	mov    %esi,%eax
     f6d:	eb 13                	jmp    f82 <sharedfd+0x112>
     f6f:	90                   	nop
        np++;
     f70:	80 f9 70             	cmp    $0x70,%cl
     f73:	0f 94 c1             	sete   %cl
     f76:	0f b6 c9             	movzbl %cl,%ecx
     f79:	01 cb                	add    %ecx,%ebx
    for(i = 0; i < sizeof(buf); i++){
     f7b:	83 c0 01             	add    $0x1,%eax
     f7e:	39 f8                	cmp    %edi,%eax
     f80:	74 ce                	je     f50 <sharedfd+0xe0>
      if(buf[i] == 'c')
     f82:	0f b6 08             	movzbl (%eax),%ecx
     f85:	80 f9 63             	cmp    $0x63,%cl
     f88:	75 e6                	jne    f70 <sharedfd+0x100>
        nc++;
     f8a:	83 c2 01             	add    $0x1,%edx
      if(buf[i] == 'p')
     f8d:	eb ec                	jmp    f7b <sharedfd+0x10b>
     f8f:	90                   	nop
  close(fd);
     f90:	83 ec 0c             	sub    $0xc,%esp
     f93:	ff 75 d0             	push   -0x30(%ebp)
     f96:	e8 40 29 00 00       	call   38db <close>
  unlink("sharedfd");
     f9b:	c7 04 24 73 41 00 00 	movl   $0x4173,(%esp)
     fa2:	e8 5c 29 00 00       	call   3903 <unlink>
  if(nc == 10000 && np == 10000){
     fa7:	8b 55 d4             	mov    -0x2c(%ebp),%edx
     faa:	83 c4 10             	add    $0x10,%esp
     fad:	81 fa 10 27 00 00    	cmp    $0x2710,%edx
     fb3:	75 5b                	jne    1010 <sharedfd+0x1a0>
     fb5:	81 fb 10 27 00 00    	cmp    $0x2710,%ebx
     fbb:	75 53                	jne    1010 <sharedfd+0x1a0>
    printf(1, "sharedfd ok\n");
     fbd:	83 ec 08             	sub    $0x8,%esp
     fc0:	68 7c 41 00 00       	push   $0x417c
     fc5:	6a 01                	push   $0x1
     fc7:	e8 44 2a 00 00       	call   3a10 <printf>
     fcc:	83 c4 10             	add    $0x10,%esp
}
     fcf:	8d 65 f4             	lea    -0xc(%ebp),%esp
     fd2:	5b                   	pop    %ebx
     fd3:	5e                   	pop    %esi
     fd4:	5f                   	pop    %edi
     fd5:	5d                   	pop    %ebp
     fd6:	c3                   	ret
    printf(1, "fstests: cannot open sharedfd for writing");
     fd7:	83 ec 08             	sub    $0x8,%esp
     fda:	68 38 4e 00 00       	push   $0x4e38
     fdf:	6a 01                	push   $0x1
     fe1:	e8 2a 2a 00 00       	call   3a10 <printf>
    return;
     fe6:	83 c4 10             	add    $0x10,%esp
}
     fe9:	8d 65 f4             	lea    -0xc(%ebp),%esp
     fec:	5b                   	pop    %ebx
     fed:	5e                   	pop    %esi
     fee:	5f                   	pop    %edi
     fef:	5d                   	pop    %ebp
     ff0:	c3                   	ret
    printf(1, "fstests: cannot open sharedfd for reading\n");
     ff1:	83 ec 08             	sub    $0x8,%esp
     ff4:	68 84 4e 00 00       	push   $0x4e84
     ff9:	6a 01                	push   $0x1
     ffb:	e8 10 2a 00 00       	call   3a10 <printf>
    return;
    1000:	83 c4 10             	add    $0x10,%esp
}
    1003:	8d 65 f4             	lea    -0xc(%ebp),%esp
    1006:	5b                   	pop    %ebx
    1007:	5e                   	pop    %esi
    1008:	5f                   	pop    %edi
    1009:	5d                   	pop    %ebp
    100a:	c3                   	ret
    exit();
    100b:	e8 a3 28 00 00       	call   38b3 <exit>
    printf(1, "sharedfd oops %d %d\n", nc, np);
    1010:	53                   	push   %ebx
    1011:	52                   	push   %edx
    1012:	68 89 41 00 00       	push   $0x4189
    1017:	6a 01                	push   $0x1
    1019:	e8 f2 29 00 00       	call   3a10 <printf>
    exit();
    101e:	e8 90 28 00 00       	call   38b3 <exit>
    1023:	8d b4 26 00 00 00 00 	lea    0x0(%esi,%eiz,1),%esi
    102a:	8d b6 00 00 00 00    	lea    0x0(%esi),%esi

00001030 <fourfiles>:
{
    1030:	55                   	push   %ebp
    1031:	89 e5                	mov    %esp,%ebp
    1033:	57                   	push   %edi
    1034:	56                   	push   %esi
    1035:	53                   	push   %ebx
  for(pi = 0; pi < 4; pi++){
    1036:	31 db                	xor    %ebx,%ebx
{
    1038:	83 ec 34             	sub    $0x34,%esp
  char *names[] = { "f0", "f1", "f2", "f3" };
    103b:	c7 45 d8 9e 41 00 00 	movl   $0x419e,-0x28(%ebp)
    1042:	c7 45 dc e7 42 00 00 	movl   $0x42e7,-0x24(%ebp)
    1049:	c7 45 e0 eb 42 00 00 	movl   $0x42eb,-0x20(%ebp)
    1050:	c7 45 e4 a1 41 00 00 	movl   $0x41a1,-0x1c(%ebp)
  printf(1, "fourfiles test\n");
    1057:	68 a4 41 00 00       	push   $0x41a4
    105c:	6a 01                	push   $0x1
    105e:	e8 ad 29 00 00       	call   3a10 <printf>
    1063:	83 c4 10             	add    $0x10,%esp
    fname = names[pi];
    1066:	8b 74 9d d8          	mov    -0x28(%ebp,%ebx,4),%esi
    unlink(fname);
    106a:	83 ec 0c             	sub    $0xc,%esp
    106d:	56                   	push   %esi
    106e:	e8 90 28 00 00       	call   3903 <unlink>
    pid = fork();
    1073:	e8 33 28 00 00       	call   38ab <fork>
    if(pid < 0){
    1078:	83 c4 10             	add    $0x10,%esp
    107b:	85 c0                	test   %eax,%eax
    107d:	0f 88 65 01 00 00    	js     11e8 <fourfiles+0x1b8>
    if(pid == 0){
    1083:	0f 84 eb 00 00 00    	je     1174 <fourfiles+0x144>
  for(pi = 0; pi < 4; pi++){
    1089:	83 c3 01             	add    $0x1,%ebx
    108c:	83 fb 04             	cmp    $0x4,%ebx
    108f:	75 d5                	jne    1066 <fourfiles+0x36>
    wait();
    1091:	e8 25 28 00 00       	call   38bb <wait>
  for(i = 0; i < 2; i++){
    1096:	31 f6                	xor    %esi,%esi
    wait();
    1098:	e8 1e 28 00 00       	call   38bb <wait>
    109d:	e8 19 28 00 00       	call   38bb <wait>
    10a2:	e8 14 28 00 00       	call   38bb <wait>
    fname = names[i];
    10a7:	8b 5c b5 d8          	mov    -0x28(%ebp,%esi,4),%ebx
    fd = open(fname, 0);
    10ab:	83 ec 08             	sub    $0x8,%esp
    total = 0;
    10ae:	31 ff                	xor    %edi,%edi
    fd = open(fname, 0);
    10b0:	6a 00                	push   $0x0
    10b2:	53                   	push   %ebx
    10b3:	e8 3b 28 00 00       	call   38f3 <open>
    while((n = read(fd, buf, sizeof(buf))) > 0){
    10b8:	89 5d d0             	mov    %ebx,-0x30(%ebp)
    10bb:	83 c4 10             	add    $0x10,%esp
    10be:	89 45 d4             	mov    %eax,-0x2c(%ebp)
    10c1:	8d b4 26 00 00 00 00 	lea    0x0(%esi,%eiz,1),%esi
    10c8:	83 ec 04             	sub    $0x4,%esp
    10cb:	68 00 20 00 00       	push   $0x2000
    10d0:	68 60 85 00 00       	push   $0x8560
    10d5:	ff 75 d4             	push   -0x2c(%ebp)
    10d8:	e8 ee 27 00 00       	call   38cb <read>
    10dd:	83 c4 10             	add    $0x10,%esp
    10e0:	89 c3                	mov    %eax,%ebx
    10e2:	85 c0                	test   %eax,%eax
    10e4:	7e 28                	jle    110e <fourfiles+0xde>
      for(j = 0; j < n; j++){
    10e6:	31 c0                	xor    %eax,%eax
    10e8:	8d b4 26 00 00 00 00 	lea    0x0(%esi,%eiz,1),%esi
    10ef:	90                   	nop
        if(buf[j] != '0'+i){
    10f0:	83 fe 01             	cmp    $0x1,%esi
    10f3:	0f be 88 60 85 00 00 	movsbl 0x8560(%eax),%ecx
    10fa:	19 d2                	sbb    %edx,%edx
    10fc:	83 c2 31             	add    $0x31,%edx
    10ff:	39 d1                	cmp    %edx,%ecx
    1101:	75 5d                	jne    1160 <fourfiles+0x130>
      for(j = 0; j < n; j++){
    1103:	83 c0 01             	add    $0x1,%eax
    1106:	39 c3                	cmp    %eax,%ebx
    1108:	75 e6                	jne    10f0 <fourfiles+0xc0>
      total += n;
    110a:	01 df                	add    %ebx,%edi
    110c:	eb ba                	jmp    10c8 <fourfiles+0x98>
    close(fd);
    110e:	8b 4d d4             	mov    -0x2c(%ebp),%ecx
    1111:	83 ec 0c             	sub    $0xc,%esp
    1114:	8b 5d d0             	mov    -0x30(%ebp),%ebx
    1117:	51                   	push   %ecx
    1118:	e8 be 27 00 00       	call   38db <close>
    if(total != 12*500){
    111d:	83 c4 10             	add    $0x10,%esp
    1120:	81 ff 70 17 00 00    	cmp    $0x1770,%edi
    1126:	0f 85 d0 00 00 00    	jne    11fc <fourfiles+0x1cc>
    unlink(fname);
    112c:	83 ec 0c             	sub    $0xc,%esp
    112f:	53                   	push   %ebx
    1130:	e8 ce 27 00 00       	call   3903 <unlink>
  for(i = 0; i < 2; i++){
    1135:	83 c4 10             	add    $0x10,%esp
    1138:	85 f6                	test   %esi,%esi
    113a:	75 0a                	jne    1146 <fourfiles+0x116>
    113c:	be 01 00 00 00       	mov    $0x1,%esi
    1141:	e9 61 ff ff ff       	jmp    10a7 <fourfiles+0x77>
  printf(1, "fourfiles ok\n");
    1146:	83 ec 08             	sub    $0x8,%esp
    1149:	68 e2 41 00 00       	push   $0x41e2
    114e:	6a 01                	push   $0x1
    1150:	e8 bb 28 00 00       	call   3a10 <printf>
}
    1155:	83 c4 10             	add    $0x10,%esp
    1158:	8d 65 f4             	lea    -0xc(%ebp),%esp
    115b:	5b                   	pop    %ebx
    115c:	5e                   	pop    %esi
    115d:	5f                   	pop    %edi
    115e:	5d                   	pop    %ebp
    115f:	c3                   	ret
          printf(1, "wrong char\n");
    1160:	83 ec 08             	sub    $0x8,%esp
    1163:	68 c5 41 00 00       	push   $0x41c5
    1168:	6a 01                	push   $0x1
    116a:	e8 a1 28 00 00       	call   3a10 <printf>
          exit();
    116f:	e8 3f 27 00 00       	call   38b3 <exit>
      fd = open(fname, O_CREATE | O_RDWR);
    1174:	83 ec 08             	sub    $0x8,%esp
    1177:	68 02 02 00 00       	push   $0x202
    117c:	56                   	push   %esi
    117d:	e8 71 27 00 00       	call   38f3 <open>
      if(fd < 0){
    1182:	83 c4 10             	add    $0x10,%esp
      fd = open(fname, O_CREATE | O_RDWR);
    1185:	89 c6                	mov    %eax,%esi
      if(fd < 0){
    1187:	85 c0                	test   %eax,%eax
    1189:	78 45                	js     11d0 <fourfiles+0x1a0>
      memset(buf, '0'+pi, 512);
    118b:	83 ec 04             	sub    $0x4,%esp
    118e:	83 c3 30             	add    $0x30,%ebx
    1191:	68 00 02 00 00       	push   $0x200
    1196:	53                   	push   %ebx
    1197:	bb 0c 00 00 00       	mov    $0xc,%ebx
    119c:	68 60 85 00 00       	push   $0x8560
    11a1:	e8 8a 25 00 00       	call   3730 <memset>
    11a6:	83 c4 10             	add    $0x10,%esp
        if((n = write(fd, buf, 500)) != 500){
    11a9:	83 ec 04             	sub    $0x4,%esp
    11ac:	68 f4 01 00 00       	push   $0x1f4
    11b1:	68 60 85 00 00       	push   $0x8560
    11b6:	56                   	push   %esi
    11b7:	e8 17 27 00 00       	call   38d3 <write>
    11bc:	83 c4 10             	add    $0x10,%esp
    11bf:	3d f4 01 00 00       	cmp    $0x1f4,%eax
    11c4:	75 49                	jne    120f <fourfiles+0x1df>
      for(i = 0; i < 12; i++){
    11c6:	83 eb 01             	sub    $0x1,%ebx
    11c9:	75 de                	jne    11a9 <fourfiles+0x179>
      exit();
    11cb:	e8 e3 26 00 00       	call   38b3 <exit>
        printf(1, "create failed\n");
    11d0:	51                   	push   %ecx
    11d1:	51                   	push   %ecx
    11d2:	68 3f 44 00 00       	push   $0x443f
    11d7:	6a 01                	push   $0x1
    11d9:	e8 32 28 00 00       	call   3a10 <printf>
        exit();
    11de:	e8 d0 26 00 00       	call   38b3 <exit>
    11e3:	8d 74 26 00          	lea    0x0(%esi,%eiz,1),%esi
    11e7:	90                   	nop
      printf(1, "fork failed\n");
    11e8:	83 ec 08             	sub    $0x8,%esp
    11eb:	68 79 4c 00 00       	push   $0x4c79
    11f0:	6a 01                	push   $0x1
    11f2:	e8 19 28 00 00       	call   3a10 <printf>
      exit();
    11f7:	e8 b7 26 00 00       	call   38b3 <exit>
      printf(1, "wrong length %d\n", total);
    11fc:	50                   	push   %eax
    11fd:	57                   	push   %edi
    11fe:	68 d1 41 00 00       	push   $0x41d1
    1203:	6a 01                	push   $0x1
    1205:	e8 06 28 00 00       	call   3a10 <printf>
      exit();
    120a:	e8 a4 26 00 00       	call   38b3 <exit>
          printf(1, "write failed %d\n", n);
    120f:	52                   	push   %edx
    1210:	50                   	push   %eax
    1211:	68 b4 41 00 00       	push   $0x41b4
    1216:	6a 01                	push   $0x1
    1218:	e8 f3 27 00 00       	call   3a10 <printf>
          exit();
    121d:	e8 91 26 00 00       	call   38b3 <exit>
    1222:	8d b4 26 00 00 00 00 	lea    0x0(%esi,%eiz,1),%esi
    1229:	8d b4 26 00 00 00 00 	lea    0x0(%esi,%eiz,1),%esi

00001230 <createdelete>:
{
    1230:	55                   	push   %ebp
    1231:	89 e5                	mov    %esp,%ebp
    1233:	57                   	push   %edi
    1234:	56                   	push   %esi
  for(pi = 0; pi < 4; pi++){
    1235:	31 f6                	xor    %esi,%esi
{
    1237:	53                   	push   %ebx
    1238:	83 ec 44             	sub    $0x44,%esp
  printf(1, "createdelete test\n");
    123b:	68 f0 41 00 00       	push   $0x41f0
    1240:	6a 01                	push   $0x1
    1242:	e8 c9 27 00 00       	call   3a10 <printf>
    1247:	83 c4 10             	add    $0x10,%esp
    pid = fork();
    124a:	e8 5c 26 00 00       	call   38ab <fork>
    124f:	89 c3                	mov    %eax,%ebx
    if(pid < 0){
    1251:	85 c0                	test   %eax,%eax
    1253:	0f 88 ac 01 00 00    	js     1405 <createdelete+0x1d5>
    if(pid == 0){
    1259:	0f 84 01 01 00 00    	je     1360 <createdelete+0x130>
  for(pi = 0; pi < 4; pi++){
    125f:	83 c6 01             	add    $0x1,%esi
    1262:	83 fe 04             	cmp    $0x4,%esi
    1265:	75 e3                	jne    124a <createdelete+0x1a>
    wait();
    1267:	e8 4f 26 00 00       	call   38bb <wait>
  for(i = 0; i < N; i++){
    126c:	31 ff                	xor    %edi,%edi
    126e:	8d 75 c8             	lea    -0x38(%ebp),%esi
    wait();
    1271:	e8 45 26 00 00       	call   38bb <wait>
    1276:	e8 40 26 00 00       	call   38bb <wait>
    127b:	e8 3b 26 00 00       	call   38bb <wait>
  name[0] = name[1] = name[2] = 0;
    1280:	c6 45 ca 00          	movb   $0x0,-0x36(%ebp)
  for(i = 0; i < N; i++){
    1284:	8d 74 26 00          	lea    0x0(%esi,%eiz,1),%esi
      if((i == 0 || i >= N/2) && fd < 0){
    1288:	85 ff                	test   %edi,%edi
      name[1] = '0' + i;
    128a:	8d 47 30             	lea    0x30(%edi),%eax
      if((i == 0 || i >= N/2) && fd < 0){
    128d:	bb 70 00 00 00       	mov    $0x70,%ebx
    1292:	0f 94 c2             	sete   %dl
    1295:	83 ff 09             	cmp    $0x9,%edi
      name[1] = '0' + i;
    1298:	88 45 c6             	mov    %al,-0x3a(%ebp)
      if((i == 0 || i >= N/2) && fd < 0){
    129b:	0f 9f c0             	setg   %al
    129e:	09 c2                	or     %eax,%edx
    12a0:	88 55 c7             	mov    %dl,-0x39(%ebp)
      name[1] = '0' + i;
    12a3:	0f b6 45 c6          	movzbl -0x3a(%ebp),%eax
      fd = open(name, 0);
    12a7:	83 ec 08             	sub    $0x8,%esp
      name[0] = 'p' + pi;
    12aa:	88 5d c8             	mov    %bl,-0x38(%ebp)
      name[1] = '0' + i;
    12ad:	88 45 c9             	mov    %al,-0x37(%ebp)
      fd = open(name, 0);
    12b0:	6a 00                	push   $0x0
    12b2:	56                   	push   %esi
    12b3:	e8 3b 26 00 00       	call   38f3 <open>
      if((i == 0 || i >= N/2) && fd < 0){
    12b8:	83 c4 10             	add    $0x10,%esp
    12bb:	80 7d c7 00          	cmpb   $0x0,-0x39(%ebp)
    12bf:	74 7f                	je     1340 <createdelete+0x110>
    12c1:	85 c0                	test   %eax,%eax
    12c3:	0f 88 27 01 00 00    	js     13f0 <createdelete+0x1c0>
        close(fd);
    12c9:	83 ec 0c             	sub    $0xc,%esp
    12cc:	50                   	push   %eax
    12cd:	e8 09 26 00 00       	call   38db <close>
    12d2:	83 c4 10             	add    $0x10,%esp
    for(pi = 0; pi < 4; pi++){
    12d5:	83 c3 01             	add    $0x1,%ebx
    12d8:	80 fb 74             	cmp    $0x74,%bl
    12db:	75 c6                	jne    12a3 <createdelete+0x73>
  for(i = 0; i < N; i++){
    12dd:	83 c7 01             	add    $0x1,%edi
    12e0:	83 ff 14             	cmp    $0x14,%edi
    12e3:	75 a3                	jne    1288 <createdelete+0x58>
    12e5:	bf 70 00 00 00       	mov    $0x70,%edi
    12ea:	8d b6 00 00 00 00    	lea    0x0(%esi),%esi
      name[1] = '0' + i;
    12f0:	8d 47 c0             	lea    -0x40(%edi),%eax
    12f3:	bb 04 00 00 00       	mov    $0x4,%ebx
    12f8:	88 45 c7             	mov    %al,-0x39(%ebp)
      name[0] = 'p' + i;
    12fb:	89 f8                	mov    %edi,%eax
      unlink(name);
    12fd:	83 ec 0c             	sub    $0xc,%esp
      name[0] = 'p' + i;
    1300:	88 45 c8             	mov    %al,-0x38(%ebp)
      name[1] = '0' + i;
    1303:	0f b6 45 c7          	movzbl -0x39(%ebp),%eax
    1307:	88 45 c9             	mov    %al,-0x37(%ebp)
      unlink(name);
    130a:	56                   	push   %esi
    130b:	e8 f3 25 00 00       	call   3903 <unlink>
    for(pi = 0; pi < 4; pi++){
    1310:	83 c4 10             	add    $0x10,%esp
    1313:	83 eb 01             	sub    $0x1,%ebx
    1316:	75 e3                	jne    12fb <createdelete+0xcb>
  for(i = 0; i < N; i++){
    1318:	83 c7 01             	add    $0x1,%edi
    131b:	89 f8                	mov    %edi,%eax
    131d:	3c 84                	cmp    $0x84,%al
    131f:	75 cf                	jne    12f0 <createdelete+0xc0>
  printf(1, "createdelete ok\n");
    1321:	83 ec 08             	sub    $0x8,%esp
    1324:	68 03 42 00 00       	push   $0x4203
    1329:	6a 01                	push   $0x1
    132b:	e8 e0 26 00 00       	call   3a10 <printf>
}
    1330:	83 c4 10             	add    $0x10,%esp
    1333:	8d 65 f4             	lea    -0xc(%ebp),%esp
    1336:	5b                   	pop    %ebx
    1337:	5e                   	pop    %esi
    1338:	5f                   	pop    %edi
    1339:	5d                   	pop    %ebp
    133a:	c3                   	ret
    133b:	8d 74 26 00          	lea    0x0(%esi,%eiz,1),%esi
    133f:	90                   	nop
      } else if((i >= 1 && i < N/2) && fd >= 0){
    1340:	85 c0                	test   %eax,%eax
    1342:	78 91                	js     12d5 <createdelete+0xa5>
        printf(1, "oops createdelete %s did exist\n", name);
    1344:	50                   	push   %eax
    1345:	56                   	push   %esi
    1346:	68 d4 4e 00 00       	push   $0x4ed4
    134b:	6a 01                	push   $0x1
    134d:	e8 be 26 00 00       	call   3a10 <printf>
        exit();
    1352:	e8 5c 25 00 00       	call   38b3 <exit>
    1357:	8d b4 26 00 00 00 00 	lea    0x0(%esi,%eiz,1),%esi
    135e:	66 90                	xchg   %ax,%ax
      name[0] = 'p' + pi;
    1360:	8d 46 70             	lea    0x70(%esi),%eax
      name[2] = '\0';
    1363:	c6 45 ca 00          	movb   $0x0,-0x36(%ebp)
    1367:	8d 75 c8             	lea    -0x38(%ebp),%esi
      name[0] = 'p' + pi;
    136a:	88 45 c8             	mov    %al,-0x38(%ebp)
      for(i = 0; i < N; i++){
    136d:	8d 76 00             	lea    0x0(%esi),%esi
        fd = open(name, O_CREATE | O_RDWR);
    1370:	83 ec 08             	sub    $0x8,%esp
        name[1] = '0' + i;
    1373:	8d 43 30             	lea    0x30(%ebx),%eax
    1376:	88 45 c9             	mov    %al,-0x37(%ebp)
        fd = open(name, O_CREATE | O_RDWR);
    1379:	68 02 02 00 00       	push   $0x202
    137e:	56                   	push   %esi
    137f:	e8 6f 25 00 00       	call   38f3 <open>
        if(fd < 0){
    1384:	83 c4 10             	add    $0x10,%esp
    1387:	85 c0                	test   %eax,%eax
    1389:	0f 88 8a 00 00 00    	js     1419 <createdelete+0x1e9>
        close(fd);
    138f:	83 ec 0c             	sub    $0xc,%esp
    1392:	50                   	push   %eax
    1393:	e8 43 25 00 00       	call   38db <close>
        if(i > 0 && (i % 2 ) == 0){
    1398:	83 c4 10             	add    $0x10,%esp
    139b:	85 db                	test   %ebx,%ebx
    139d:	74 19                	je     13b8 <createdelete+0x188>
    139f:	f6 c3 01             	test   $0x1,%bl
    13a2:	74 1b                	je     13bf <createdelete+0x18f>
      for(i = 0; i < N; i++){
    13a4:	83 c3 01             	add    $0x1,%ebx
    13a7:	83 fb 14             	cmp    $0x14,%ebx
    13aa:	75 c4                	jne    1370 <createdelete+0x140>
      exit();
    13ac:	e8 02 25 00 00       	call   38b3 <exit>
    13b1:	8d b4 26 00 00 00 00 	lea    0x0(%esi,%eiz,1),%esi
      for(i = 0; i < N; i++){
    13b8:	bb 01 00 00 00       	mov    $0x1,%ebx
    13bd:	eb b1                	jmp    1370 <createdelete+0x140>
          name[1] = '0' + (i / 2);
    13bf:	89 d8                	mov    %ebx,%eax
          if(unlink(name) < 0){
    13c1:	83 ec 0c             	sub    $0xc,%esp
          name[1] = '0' + (i / 2);
    13c4:	d1 f8                	sar    %eax
    13c6:	83 c0 30             	add    $0x30,%eax
    13c9:	88 45 c9             	mov    %al,-0x37(%ebp)
          if(unlink(name) < 0){
    13cc:	56                   	push   %esi
    13cd:	e8 31 25 00 00       	call   3903 <unlink>
    13d2:	83 c4 10             	add    $0x10,%esp
    13d5:	85 c0                	test   %eax,%eax
    13d7:	79 cb                	jns    13a4 <createdelete+0x174>
            printf(1, "unlink failed\n");
    13d9:	52                   	push   %edx
    13da:	52                   	push   %edx
    13db:	68 f1 3d 00 00       	push   $0x3df1
    13e0:	6a 01                	push   $0x1
    13e2:	e8 29 26 00 00       	call   3a10 <printf>
            exit();
    13e7:	e8 c7 24 00 00       	call   38b3 <exit>
    13ec:	8d 74 26 00          	lea    0x0(%esi,%eiz,1),%esi
        printf(1, "oops createdelete %s didn't exist\n", name);
    13f0:	83 ec 04             	sub    $0x4,%esp
    13f3:	56                   	push   %esi
    13f4:	68 b0 4e 00 00       	push   $0x4eb0
    13f9:	6a 01                	push   $0x1
    13fb:	e8 10 26 00 00       	call   3a10 <printf>
        exit();
    1400:	e8 ae 24 00 00       	call   38b3 <exit>
      printf(1, "fork failed\n");
    1405:	83 ec 08             	sub    $0x8,%esp
    1408:	68 79 4c 00 00       	push   $0x4c79
    140d:	6a 01                	push   $0x1
    140f:	e8 fc 25 00 00       	call   3a10 <printf>
      exit();
    1414:	e8 9a 24 00 00       	call   38b3 <exit>
          printf(1, "create failed\n");
    1419:	83 ec 08             	sub    $0x8,%esp
    141c:	68 3f 44 00 00       	push   $0x443f
    1421:	6a 01                	push   $0x1
    1423:	e8 e8 25 00 00       	call   3a10 <printf>
          exit();
    1428:	e8 86 24 00 00       	call   38b3 <exit>
    142d:	8d 76 00             	lea    0x0(%esi),%esi

00001430 <unlinkread>:
{
    1430:	55                   	push   %ebp
    1431:	89 e5                	mov    %esp,%ebp
    1433:	56                   	push   %esi
    1434:	53                   	push   %ebx
  printf(1, "unlinkread test\n");
    1435:	83 ec 08             	sub    $0x8,%esp
    1438:	68 14 42 00 00       	push   $0x4214
    143d:	6a 01                	push   $0x1
    143f:	e8 cc 25 00 00       	call   3a10 <printf>
  fd = open("unlinkread", O_CREATE | O_RDWR);
    1444:	5b                   	pop    %ebx
    1445:	5e                   	pop    %esi
    1446:	68 02 02 00 00       	push   $0x202
    144b:	68 25 42 00 00       	push   $0x4225
    1450:	e8 9e 24 00 00       	call   38f3 <open>
  if(fd < 0){
    1455:	83 c4 10             	add    $0x10,%esp
    1458:	85 c0                	test   %eax,%eax
    145a:	0f 88 e6 00 00 00    	js     1546 <unlinkread+0x116>
  write(fd, "hello", 5);
    1460:	83 ec 04             	sub    $0x4,%esp
    1463:	89 c3                	mov    %eax,%ebx
    1465:	6a 05                	push   $0x5
    1467:	68 4a 42 00 00       	push   $0x424a
    146c:	50                   	push   %eax
    146d:	e8 61 24 00 00       	call   38d3 <write>
  close(fd);
    1472:	89 1c 24             	mov    %ebx,(%esp)
    1475:	e8 61 24 00 00       	call   38db <close>
  fd = open("unlinkread", O_RDWR);
    147a:	58                   	pop    %eax
    147b:	5a                   	pop    %edx
    147c:	6a 02                	push   $0x2
    147e:	68 25 42 00 00       	push   $0x4225
    1483:	e8 6b 24 00 00       	call   38f3 <open>
  if(fd < 0){
    1488:	83 c4 10             	add    $0x10,%esp
  fd = open("unlinkread", O_RDWR);
    148b:	89 c3                	mov    %eax,%ebx
  if(fd < 0){
    148d:	85 c0                	test   %eax,%eax
    148f:	0f 88 10 01 00 00    	js     15a5 <unlinkread+0x175>
  if(unlink("unlinkread") != 0){
    1495:	83 ec 0c             	sub    $0xc,%esp
    1498:	68 25 42 00 00       	push   $0x4225
    149d:	e8 61 24 00 00       	call   3903 <unlink>
    14a2:	83 c4 10             	add    $0x10,%esp
    14a5:	85 c0                	test   %eax,%eax
    14a7:	0f 85 e5 00 00 00    	jne    1592 <unlinkread+0x162>
  fd1 = open("unlinkread", O_CREATE | O_RDWR);
    14ad:	83 ec 08             	sub    $0x8,%esp
    14b0:	68 02 02 00 00       	push   $0x202
    14b5:	68 25 42 00 00       	push   $0x4225
    14ba:	e8 34 24 00 00       	call   38f3 <open>
  write(fd1, "yyy", 3);
    14bf:	83 c4 0c             	add    $0xc,%esp
    14c2:	6a 03                	push   $0x3
  fd1 = open("unlinkread", O_CREATE | O_RDWR);
    14c4:	89 c6                	mov    %eax,%esi
  write(fd1, "yyy", 3);
    14c6:	68 82 42 00 00       	push   $0x4282
    14cb:	50                   	push   %eax
    14cc:	e8 02 24 00 00       	call   38d3 <write>
  close(fd1);
    14d1:	89 34 24             	mov    %esi,(%esp)
    14d4:	e8 02 24 00 00       	call   38db <close>
  if(read(fd, buf, sizeof(buf)) != 5){
    14d9:	83 c4 0c             	add    $0xc,%esp
    14dc:	68 00 20 00 00       	push   $0x2000
    14e1:	68 60 85 00 00       	push   $0x8560
    14e6:	53                   	push   %ebx
    14e7:	e8 df 23 00 00       	call   38cb <read>
    14ec:	83 c4 10             	add    $0x10,%esp
    14ef:	83 f8 05             	cmp    $0x5,%eax
    14f2:	0f 85 87 00 00 00    	jne    157f <unlinkread+0x14f>
  if(buf[0] != 'h'){
    14f8:	80 3d 60 85 00 00 68 	cmpb   $0x68,0x8560
    14ff:	75 6b                	jne    156c <unlinkread+0x13c>
  if(write(fd, buf, 10) != 10){
    1501:	83 ec 04             	sub    $0x4,%esp
    1504:	6a 0a                	push   $0xa
    1506:	68 60 85 00 00       	push   $0x8560
    150b:	53                   	push   %ebx
    150c:	e8 c2 23 00 00       	call   38d3 <write>
    1511:	83 c4 10             	add    $0x10,%esp
    1514:	83 f8 0a             	cmp    $0xa,%eax
    1517:	75 40                	jne    1559 <unlinkread+0x129>
  close(fd);
    1519:	83 ec 0c             	sub    $0xc,%esp
    151c:	53                   	push   %ebx
    151d:	e8 b9 23 00 00       	call   38db <close>
  unlink("unlinkread");
    1522:	c7 04 24 25 42 00 00 	movl   $0x4225,(%esp)
    1529:	e8 d5 23 00 00       	call   3903 <unlink>
  printf(1, "unlinkread ok\n");
    152e:	58                   	pop    %eax
    152f:	5a                   	pop    %edx
    1530:	68 cd 42 00 00       	push   $0x42cd
    1535:	6a 01                	push   $0x1
    1537:	e8 d4 24 00 00       	call   3a10 <printf>
}
    153c:	83 c4 10             	add    $0x10,%esp
    153f:	8d 65 f8             	lea    -0x8(%ebp),%esp
    1542:	5b                   	pop    %ebx
    1543:	5e                   	pop    %esi
    1544:	5d                   	pop    %ebp
    1545:	c3                   	ret
    printf(1, "create unlinkread failed\n");
    1546:	51                   	push   %ecx
    1547:	51                   	push   %ecx
    1548:	68 30 42 00 00       	push   $0x4230
    154d:	6a 01                	push   $0x1
    154f:	e8 bc 24 00 00       	call   3a10 <printf>
    exit();
    1554:	e8 5a 23 00 00       	call   38b3 <exit>
    printf(1, "unlinkread write failed\n");
    1559:	51                   	push   %ecx
    155a:	51                   	push   %ecx
    155b:	68 b4 42 00 00       	push   $0x42b4
    1560:	6a 01                	push   $0x1
    1562:	e8 a9 24 00 00       	call   3a10 <printf>
    exit();
    1567:	e8 47 23 00 00       	call   38b3 <exit>
    printf(1, "unlinkread wrong data\n");
    156c:	53                   	push   %ebx
    156d:	53                   	push   %ebx
    156e:	68 9d 42 00 00       	push   $0x429d
    1573:	6a 01                	push   $0x1
    1575:	e8 96 24 00 00       	call   3a10 <printf>
    exit();
    157a:	e8 34 23 00 00       	call   38b3 <exit>
    printf(1, "unlinkread read failed");
    157f:	56                   	push   %esi
    1580:	56                   	push   %esi
    1581:	68 86 42 00 00       	push   $0x4286
    1586:	6a 01                	push   $0x1
    1588:	e8 83 24 00 00       	call   3a10 <printf>
    exit();
    158d:	e8 21 23 00 00       	call   38b3 <exit>
    printf(1, "unlink unlinkread failed\n");
    1592:	50                   	push   %eax
    1593:	50                   	push   %eax
    1594:	68 68 42 00 00       	push   $0x4268
    1599:	6a 01                	push   $0x1
    159b:	e8 70 24 00 00       	call   3a10 <printf>
    exit();
    15a0:	e8 0e 23 00 00       	call   38b3 <exit>
    printf(1, "open unlinkread failed\n");
    15a5:	50                   	push   %eax
    15a6:	50                   	push   %eax
    15a7:	68 50 42 00 00       	push   $0x4250
    15ac:	6a 01                	push   $0x1
    15ae:	e8 5d 24 00 00       	call   3a10 <printf>
    exit();
    15b3:	e8 fb 22 00 00       	call   38b3 <exit>
    15b8:	8d b4 26 00 00 00 00 	lea    0x0(%esi,%eiz,1),%esi
    15bf:	90                   	nop

000015c0 <linktest>:
{
    15c0:	55                   	push   %ebp
    15c1:	89 e5                	mov    %esp,%ebp
    15c3:	53                   	push   %ebx
    15c4:	83 ec 0c             	sub    $0xc,%esp
  printf(1, "linktest\n");
    15c7:	68 dc 42 00 00       	push   $0x42dc
    15cc:	6a 01                	push   $0x1
    15ce:	e8 3d 24 00 00       	call   3a10 <printf>
  unlink("lf1");
    15d3:	c7 04 24 e6 42 00 00 	movl   $0x42e6,(%esp)
    15da:	e8 24 23 00 00       	call   3903 <unlink>
  unlink("lf2");
    15df:	c7 04 24 ea 42 00 00 	movl   $0x42ea,(%esp)
    15e6:	e8 18 23 00 00       	call   3903 <unlink>
  fd = open("lf1", O_CREATE|O_RDWR);
    15eb:	58                   	pop    %eax
    15ec:	5a                   	pop    %edx
    15ed:	68 02 02 00 00       	push   $0x202
    15f2:	68 e6 42 00 00       	push   $0x42e6
    15f7:	e8 f7 22 00 00       	call   38f3 <open>
  if(fd < 0){
    15fc:	83 c4 10             	add    $0x10,%esp
    15ff:	85 c0                	test   %eax,%eax
    1601:	0f 88 1e 01 00 00    	js     1725 <linktest+0x165>
  if(write(fd, "hello", 5) != 5){
    1607:	83 ec 04             	sub    $0x4,%esp
    160a:	89 c3                	mov    %eax,%ebx
    160c:	6a 05                	push   $0x5
    160e:	68 4a 42 00 00       	push   $0x424a
    1613:	50                   	push   %eax
    1614:	e8 ba 22 00 00       	call   38d3 <write>
    1619:	83 c4 10             	add    $0x10,%esp
    161c:	83 f8 05             	cmp    $0x5,%eax
    161f:	0f 85 98 01 00 00    	jne    17bd <linktest+0x1fd>
  close(fd);
    1625:	83 ec 0c             	sub    $0xc,%esp
    1628:	53                   	push   %ebx
    1629:	e8 ad 22 00 00       	call   38db <close>
  if(link("lf1", "lf2") < 0){
    162e:	5b                   	pop    %ebx
    162f:	58                   	pop    %eax
    1630:	68 ea 42 00 00       	push   $0x42ea
    1635:	68 e6 42 00 00       	push   $0x42e6
    163a:	e8 d4 22 00 00       	call   3913 <link>
    163f:	83 c4 10             	add    $0x10,%esp
    1642:	85 c0                	test   %eax,%eax
    1644:	0f 88 60 01 00 00    	js     17aa <linktest+0x1ea>
  unlink("lf1");
    164a:	83 ec 0c             	sub    $0xc,%esp
    164d:	68 e6 42 00 00       	push   $0x42e6
    1652:	e8 ac 22 00 00       	call   3903 <unlink>
  if(open("lf1", 0) >= 0){
    1657:	58                   	pop    %eax
    1658:	5a                   	pop    %edx
    1659:	6a 00                	push   $0x0
    165b:	68 e6 42 00 00       	push   $0x42e6
    1660:	e8 8e 22 00 00       	call   38f3 <open>
    1665:	83 c4 10             	add    $0x10,%esp
    1668:	85 c0                	test   %eax,%eax
    166a:	0f 89 27 01 00 00    	jns    1797 <linktest+0x1d7>
  fd = open("lf2", 0);
    1670:	83 ec 08             	sub    $0x8,%esp
    1673:	6a 00                	push   $0x0
    1675:	68 ea 42 00 00       	push   $0x42ea
    167a:	e8 74 22 00 00       	call   38f3 <open>
  if(fd < 0){
    167f:	83 c4 10             	add    $0x10,%esp
  fd = open("lf2", 0);
    1682:	89 c3                	mov    %eax,%ebx
  if(fd < 0){
    1684:	85 c0                	test   %eax,%eax
    1686:	0f 88 f8 00 00 00    	js     1784 <linktest+0x1c4>
  if(read(fd, buf, sizeof(buf)) != 5){
    168c:	83 ec 04             	sub    $0x4,%esp
    168f:	68 00 20 00 00       	push   $0x2000
    1694:	68 60 85 00 00       	push   $0x8560
    1699:	50                   	push   %eax
    169a:	e8 2c 22 00 00       	call   38cb <read>
    169f:	83 c4 10             	add    $0x10,%esp
    16a2:	83 f8 05             	cmp    $0x5,%eax
    16a5:	0f 85 c6 00 00 00    	jne    1771 <linktest+0x1b1>
  close(fd);
    16ab:	83 ec 0c             	sub    $0xc,%esp
    16ae:	53                   	push   %ebx
    16af:	e8 27 22 00 00       	call   38db <close>
  if(link("lf2", "lf2") >= 0){
    16b4:	58                   	pop    %eax
    16b5:	5a                   	pop    %edx
    16b6:	68 ea 42 00 00       	push   $0x42ea
    16bb:	68 ea 42 00 00       	push   $0x42ea
    16c0:	e8 4e 22 00 00       	call   3913 <link>
    16c5:	83 c4 10             	add    $0x10,%esp
    16c8:	85 c0                	test   %eax,%eax
    16ca:	0f 89 8e 00 00 00    	jns    175e <linktest+0x19e>
  unlink("lf2");
    16d0:	83 ec 0c             	sub    $0xc,%esp
    16d3:	68 ea 42 00 00       	push   $0x42ea
    16d8:	e8 26 22 00 00       	call   3903 <unlink>
  if(link("lf2", "lf1") >= 0){
    16dd:	59                   	pop    %ecx
    16de:	5b                   	pop    %ebx
    16df:	68 e6 42 00 00       	push   $0x42e6
    16e4:	68 ea 42 00 00       	push   $0x42ea
    16e9:	e8 25 22 00 00       	call   3913 <link>
    16ee:	83 c4 10             	add    $0x10,%esp
    16f1:	85 c0                	test   %eax,%eax
    16f3:	79 56                	jns    174b <linktest+0x18b>
  if(link(".", "lf1") >= 0){
    16f5:	83 ec 08             	sub    $0x8,%esp
    16f8:	68 e6 42 00 00       	push   $0x42e6
    16fd:	68 ae 45 00 00       	push   $0x45ae
    1702:	e8 0c 22 00 00       	call   3913 <link>
    1707:	83 c4 10             	add    $0x10,%esp
    170a:	85 c0                	test   %eax,%eax
    170c:	79 2a                	jns    1738 <linktest+0x178>
  printf(1, "linktest ok\n");
    170e:	83 ec 08             	sub    $0x8,%esp
    1711:	68 84 43 00 00       	push   $0x4384
    1716:	6a 01                	push   $0x1
    1718:	e8 f3 22 00 00       	call   3a10 <printf>
}
    171d:	8b 5d fc             	mov    -0x4(%ebp),%ebx
    1720:	83 c4 10             	add    $0x10,%esp
    1723:	c9                   	leave
    1724:	c3                   	ret
    printf(1, "create lf1 failed\n");
    1725:	50                   	push   %eax
    1726:	50                   	push   %eax
    1727:	68 ee 42 00 00       	push   $0x42ee
    172c:	6a 01                	push   $0x1
    172e:	e8 dd 22 00 00       	call   3a10 <printf>
    exit();
    1733:	e8 7b 21 00 00       	call   38b3 <exit>
    printf(1, "link . lf1 succeeded! oops\n");
    1738:	50                   	push   %eax
    1739:	50                   	push   %eax
    173a:	68 68 43 00 00       	push   $0x4368
    173f:	6a 01                	push   $0x1
    1741:	e8 ca 22 00 00       	call   3a10 <printf>
    exit();
    1746:	e8 68 21 00 00       	call   38b3 <exit>
    printf(1, "link non-existant succeeded! oops\n");
    174b:	52                   	push   %edx
    174c:	52                   	push   %edx
    174d:	68 1c 4f 00 00       	push   $0x4f1c
    1752:	6a 01                	push   $0x1
    1754:	e8 b7 22 00 00       	call   3a10 <printf>
    exit();
    1759:	e8 55 21 00 00       	call   38b3 <exit>
    printf(1, "link lf2 lf2 succeeded! oops\n");
    175e:	50                   	push   %eax
    175f:	50                   	push   %eax
    1760:	68 4a 43 00 00       	push   $0x434a
    1765:	6a 01                	push   $0x1
    1767:	e8 a4 22 00 00       	call   3a10 <printf>
    exit();
    176c:	e8 42 21 00 00       	call   38b3 <exit>
    printf(1, "read lf2 failed\n");
    1771:	51                   	push   %ecx
    1772:	51                   	push   %ecx
    1773:	68 39 43 00 00       	push   $0x4339
    1778:	6a 01                	push   $0x1
    177a:	e8 91 22 00 00       	call   3a10 <printf>
    exit();
    177f:	e8 2f 21 00 00       	call   38b3 <exit>
    printf(1, "open lf2 failed\n");
    1784:	53                   	push   %ebx
    1785:	53                   	push   %ebx
    1786:	68 28 43 00 00       	push   $0x4328
    178b:	6a 01                	push   $0x1
    178d:	e8 7e 22 00 00       	call   3a10 <printf>
    exit();
    1792:	e8 1c 21 00 00       	call   38b3 <exit>
    printf(1, "unlinked lf1 but it is still there!\n");
    1797:	50                   	push   %eax
    1798:	50                   	push   %eax
    1799:	68 f4 4e 00 00       	push   $0x4ef4
    179e:	6a 01                	push   $0x1
    17a0:	e8 6b 22 00 00       	call   3a10 <printf>
    exit();
    17a5:	e8 09 21 00 00       	call   38b3 <exit>
    printf(1, "link lf1 lf2 failed\n");
    17aa:	51                   	push   %ecx
    17ab:	51                   	push   %ecx
    17ac:	68 13 43 00 00       	push   $0x4313
    17b1:	6a 01                	push   $0x1
    17b3:	e8 58 22 00 00       	call   3a10 <printf>
    exit();
    17b8:	e8 f6 20 00 00       	call   38b3 <exit>
    printf(1, "write lf1 failed\n");
    17bd:	50                   	push   %eax
    17be:	50                   	push   %eax
    17bf:	68 01 43 00 00       	push   $0x4301
    17c4:	6a 01                	push   $0x1
    17c6:	e8 45 22 00 00       	call   3a10 <printf>
    exit();
    17cb:	e8 e3 20 00 00       	call   38b3 <exit>

000017d0 <concreate>:
{
    17d0:	55                   	push   %ebp
    17d1:	89 e5                	mov    %esp,%ebp
    17d3:	57                   	push   %edi
    17d4:	56                   	push   %esi
  for(i = 0; i < 40; i++){
    17d5:	31 f6                	xor    %esi,%esi
{
    17d7:	53                   	push   %ebx
    17d8:	8d 5d ad             	lea    -0x53(%ebp),%ebx
    17db:	83 ec 64             	sub    $0x64,%esp
  printf(1, "concreate test\n");
    17de:	68 91 43 00 00       	push   $0x4391
    17e3:	6a 01                	push   $0x1
    17e5:	e8 26 22 00 00       	call   3a10 <printf>
  file[0] = 'C';
    17ea:	c6 45 ad 43          	movb   $0x43,-0x53(%ebp)
  file[2] = '\0';
    17ee:	83 c4 10             	add    $0x10,%esp
    17f1:	c6 45 af 00          	movb   $0x0,-0x51(%ebp)
  for(i = 0; i < 40; i++){
    17f5:	eb 4c                	jmp    1843 <concreate+0x73>
    17f7:	8d b4 26 00 00 00 00 	lea    0x0(%esi,%eiz,1),%esi
    17fe:	66 90                	xchg   %ax,%ax
    1800:	69 c6 ab aa aa aa    	imul   $0xaaaaaaab,%esi,%eax
    if(pid && (i % 3) == 1){
    1806:	3d ab aa aa aa       	cmp    $0xaaaaaaab,%eax
    180b:	0f 83 8f 00 00 00    	jae    18a0 <concreate+0xd0>
      fd = open(file, O_CREATE | O_RDWR);
    1811:	83 ec 08             	sub    $0x8,%esp
    1814:	68 02 02 00 00       	push   $0x202
    1819:	53                   	push   %ebx
    181a:	e8 d4 20 00 00       	call   38f3 <open>
      if(fd < 0){
    181f:	83 c4 10             	add    $0x10,%esp
    1822:	85 c0                	test   %eax,%eax
    1824:	78 63                	js     1889 <concreate+0xb9>
      close(fd);
    1826:	83 ec 0c             	sub    $0xc,%esp
  for(i = 0; i < 40; i++){
    1829:	83 c6 01             	add    $0x1,%esi
      close(fd);
    182c:	50                   	push   %eax
    182d:	e8 a9 20 00 00       	call   38db <close>
    1832:	83 c4 10             	add    $0x10,%esp
      wait();
    1835:	e8 81 20 00 00       	call   38bb <wait>
  for(i = 0; i < 40; i++){
    183a:	83 fe 28             	cmp    $0x28,%esi
    183d:	0f 84 7f 00 00 00    	je     18c2 <concreate+0xf2>
    unlink(file);
    1843:	83 ec 0c             	sub    $0xc,%esp
    file[1] = '0' + i;
    1846:	8d 46 30             	lea    0x30(%esi),%eax
    1849:	88 45 ae             	mov    %al,-0x52(%ebp)
    unlink(file);
    184c:	53                   	push   %ebx
    184d:	e8 b1 20 00 00       	call   3903 <unlink>
    pid = fork();
    1852:	e8 54 20 00 00       	call   38ab <fork>
    if(pid && (i % 3) == 1){
    1857:	83 c4 10             	add    $0x10,%esp
    185a:	85 c0                	test   %eax,%eax
    185c:	75 a2                	jne    1800 <concreate+0x30>
      link("C0", file);
    185e:	69 f6 cd cc cc cc    	imul   $0xcccccccd,%esi,%esi
    } else if(pid == 0 && (i % 5) == 1){
    1864:	81 fe cd cc cc cc    	cmp    $0xcccccccd,%esi
    186a:	0f 83 d0 00 00 00    	jae    1940 <concreate+0x170>
      fd = open(file, O_CREATE | O_RDWR);
    1870:	83 ec 08             	sub    $0x8,%esp
    1873:	68 02 02 00 00       	push   $0x202
    1878:	53                   	push   %ebx
    1879:	e8 75 20 00 00       	call   38f3 <open>
      if(fd < 0){
    187e:	83 c4 10             	add    $0x10,%esp
    1881:	85 c0                	test   %eax,%eax
    1883:	0f 89 ea 01 00 00    	jns    1a73 <concreate+0x2a3>
        printf(1, "concreate create %s failed\n", file);
    1889:	83 ec 04             	sub    $0x4,%esp
    188c:	53                   	push   %ebx
    188d:	68 a4 43 00 00       	push   $0x43a4
    1892:	6a 01                	push   $0x1
    1894:	e8 77 21 00 00       	call   3a10 <printf>
        exit();
    1899:	e8 15 20 00 00       	call   38b3 <exit>
    189e:	66 90                	xchg   %ax,%ax
      link("C0", file);
    18a0:	83 ec 08             	sub    $0x8,%esp
  for(i = 0; i < 40; i++){
    18a3:	83 c6 01             	add    $0x1,%esi
      link("C0", file);
    18a6:	53                   	push   %ebx
    18a7:	68 a1 43 00 00       	push   $0x43a1
    18ac:	e8 62 20 00 00       	call   3913 <link>
    18b1:	83 c4 10             	add    $0x10,%esp
      wait();
    18b4:	e8 02 20 00 00       	call   38bb <wait>
  for(i = 0; i < 40; i++){
    18b9:	83 fe 28             	cmp    $0x28,%esi
    18bc:	0f 85 81 ff ff ff    	jne    1843 <concreate+0x73>
  memset(fa, 0, sizeof(fa));
    18c2:	83 ec 04             	sub    $0x4,%esp
    18c5:	8d 45 c0             	lea    -0x40(%ebp),%eax
    18c8:	6a 28                	push   $0x28
    18ca:	6a 00                	push   $0x0
    18cc:	50                   	push   %eax
    18cd:	e8 5e 1e 00 00       	call   3730 <memset>
  fd = open(".", 0);
    18d2:	5e                   	pop    %esi
    18d3:	5f                   	pop    %edi
    18d4:	6a 00                	push   $0x0
    18d6:	68 ae 45 00 00       	push   $0x45ae
    18db:	8d 7d b0             	lea    -0x50(%ebp),%edi
    18de:	e8 10 20 00 00       	call   38f3 <open>
  n = 0;
    18e3:	c7 45 a4 00 00 00 00 	movl   $0x0,-0x5c(%ebp)
  while(read(fd, &de, sizeof(de)) > 0){
    18ea:	83 c4 10             	add    $0x10,%esp
  fd = open(".", 0);
    18ed:	89 c6                	mov    %eax,%esi
  while(read(fd, &de, sizeof(de)) > 0){
    18ef:	90                   	nop
    18f0:	83 ec 04             	sub    $0x4,%esp
    18f3:	6a 10                	push   $0x10
    18f5:	57                   	push   %edi
    18f6:	56                   	push   %esi
    18f7:	e8 cf 1f 00 00       	call   38cb <read>
    18fc:	83 c4 10             	add    $0x10,%esp
    18ff:	85 c0                	test   %eax,%eax
    1901:	7e 5d                	jle    1960 <concreate+0x190>
    if(de.inum == 0)
    1903:	66 83 7d b0 00       	cmpw   $0x0,-0x50(%ebp)
    1908:	74 e6                	je     18f0 <concreate+0x120>
    if(de.name[0] == 'C' && de.name[2] == '\0'){
    190a:	80 7d b2 43          	cmpb   $0x43,-0x4e(%ebp)
    190e:	75 e0                	jne    18f0 <concreate+0x120>
    1910:	80 7d b4 00          	cmpb   $0x0,-0x4c(%ebp)
    1914:	75 da                	jne    18f0 <concreate+0x120>
      i = de.name[1] - '0';
    1916:	0f be 45 b3          	movsbl -0x4d(%ebp),%eax
    191a:	83 e8 30             	sub    $0x30,%eax
      if(i < 0 || i >= sizeof(fa)){
    191d:	83 f8 27             	cmp    $0x27,%eax
    1920:	0f 87 5e 01 00 00    	ja     1a84 <concreate+0x2b4>
      if(fa[i]){
    1926:	80 7c 05 c0 00       	cmpb   $0x0,-0x40(%ebp,%eax,1)
    192b:	0f 85 7e 01 00 00    	jne    1aaf <concreate+0x2df>
      n++;
    1931:	83 45 a4 01          	addl   $0x1,-0x5c(%ebp)
      fa[i] = 1;
    1935:	c6 44 05 c0 01       	movb   $0x1,-0x40(%ebp,%eax,1)
      n++;
    193a:	eb b4                	jmp    18f0 <concreate+0x120>
    193c:	8d 74 26 00          	lea    0x0(%esi,%eiz,1),%esi
      link("C0", file);
    1940:	83 ec 08             	sub    $0x8,%esp
    1943:	53                   	push   %ebx
    1944:	68 a1 43 00 00       	push   $0x43a1
    1949:	e8 c5 1f 00 00       	call   3913 <link>
    194e:	83 c4 10             	add    $0x10,%esp
      exit();
    1951:	e8 5d 1f 00 00       	call   38b3 <exit>
    1956:	8d b4 26 00 00 00 00 	lea    0x0(%esi,%eiz,1),%esi
    195d:	8d 76 00             	lea    0x0(%esi),%esi
  close(fd);
    1960:	83 ec 0c             	sub    $0xc,%esp
    1963:	56                   	push   %esi
    1964:	e8 72 1f 00 00       	call   38db <close>
  if(n != 40){
    1969:	83 c4 10             	add    $0x10,%esp
    196c:	83 7d a4 28          	cmpl   $0x28,-0x5c(%ebp)
    1970:	0f 85 26 01 00 00    	jne    1a9c <concreate+0x2cc>
  for(i = 0; i < 40; i++){
    1976:	31 f6                	xor    %esi,%esi
    1978:	eb 48                	jmp    19c2 <concreate+0x1f2>
    197a:	8d b6 00 00 00 00    	lea    0x0(%esi),%esi
       ((i % 3) == 1 && pid != 0)){
    1980:	85 ff                	test   %edi,%edi
    1982:	74 05                	je     1989 <concreate+0x1b9>
    1984:	83 f8 01             	cmp    $0x1,%eax
    1987:	74 68                	je     19f1 <concreate+0x221>
      unlink(file);
    1989:	83 ec 0c             	sub    $0xc,%esp
    198c:	53                   	push   %ebx
    198d:	e8 71 1f 00 00       	call   3903 <unlink>
      unlink(file);
    1992:	89 1c 24             	mov    %ebx,(%esp)
    1995:	e8 69 1f 00 00       	call   3903 <unlink>
      unlink(file);
    199a:	89 1c 24             	mov    %ebx,(%esp)
    199d:	e8 61 1f 00 00       	call   3903 <unlink>
      unlink(file);
    19a2:	89 1c 24             	mov    %ebx,(%esp)
    19a5:	e8 59 1f 00 00       	call   3903 <unlink>
    19aa:	83 c4 10             	add    $0x10,%esp
    if(pid == 0)
    19ad:	85 ff                	test   %edi,%edi
    19af:	74 a0                	je     1951 <concreate+0x181>
      wait();
    19b1:	e8 05 1f 00 00       	call   38bb <wait>
  for(i = 0; i < 40; i++){
    19b6:	83 c6 01             	add    $0x1,%esi
    19b9:	83 fe 28             	cmp    $0x28,%esi
    19bc:	0f 84 86 00 00 00    	je     1a48 <concreate+0x278>
    file[1] = '0' + i;
    19c2:	8d 46 30             	lea    0x30(%esi),%eax
    19c5:	88 45 ae             	mov    %al,-0x52(%ebp)
    pid = fork();
    19c8:	e8 de 1e 00 00       	call   38ab <fork>
    19cd:	89 c7                	mov    %eax,%edi
    if(pid < 0){
    19cf:	85 c0                	test   %eax,%eax
    19d1:	0f 88 88 00 00 00    	js     1a5f <concreate+0x28f>
    if(((i % 3) == 0 && pid == 0) ||
    19d7:	b8 ab aa aa aa       	mov    $0xaaaaaaab,%eax
    19dc:	f7 e6                	mul    %esi
    19de:	89 d0                	mov    %edx,%eax
    19e0:	83 e2 fe             	and    $0xfffffffe,%edx
    19e3:	d1 e8                	shr    %eax
    19e5:	01 c2                	add    %eax,%edx
    19e7:	89 f0                	mov    %esi,%eax
    19e9:	29 d0                	sub    %edx,%eax
    19eb:	89 c1                	mov    %eax,%ecx
    19ed:	09 f9                	or     %edi,%ecx
    19ef:	75 8f                	jne    1980 <concreate+0x1b0>
      close(open(file, 0));
    19f1:	83 ec 08             	sub    $0x8,%esp
    19f4:	6a 00                	push   $0x0
    19f6:	53                   	push   %ebx
    19f7:	e8 f7 1e 00 00       	call   38f3 <open>
    19fc:	89 04 24             	mov    %eax,(%esp)
    19ff:	e8 d7 1e 00 00       	call   38db <close>
      close(open(file, 0));
    1a04:	58                   	pop    %eax
    1a05:	5a                   	pop    %edx
    1a06:	6a 00                	push   $0x0
    1a08:	53                   	push   %ebx
    1a09:	e8 e5 1e 00 00       	call   38f3 <open>
    1a0e:	89 04 24             	mov    %eax,(%esp)
    1a11:	e8 c5 1e 00 00       	call   38db <close>
      close(open(file, 0));
    1a16:	59                   	pop    %ecx
    1a17:	58                   	pop    %eax
    1a18:	6a 00                	push   $0x0
    1a1a:	53                   	push   %ebx
    1a1b:	e8 d3 1e 00 00       	call   38f3 <open>
    1a20:	89 04 24             	mov    %eax,(%esp)
    1a23:	e8 b3 1e 00 00       	call   38db <close>
      close(open(file, 0));
    1a28:	58                   	pop    %eax
    1a29:	5a                   	pop    %edx
    1a2a:	6a 00                	push   $0x0
    1a2c:	53                   	push   %ebx
    1a2d:	e8 c1 1e 00 00       	call   38f3 <open>
    1a32:	89 04 24             	mov    %eax,(%esp)
    1a35:	e8 a1 1e 00 00       	call   38db <close>
    1a3a:	83 c4 10             	add    $0x10,%esp
    1a3d:	e9 6b ff ff ff       	jmp    19ad <concreate+0x1dd>
    1a42:	8d b6 00 00 00 00    	lea    0x0(%esi),%esi
  printf(1, "concreate ok\n");
    1a48:	83 ec 08             	sub    $0x8,%esp
    1a4b:	68 f6 43 00 00       	push   $0x43f6
    1a50:	6a 01                	push   $0x1
    1a52:	e8 b9 1f 00 00       	call   3a10 <printf>
}
    1a57:	8d 65 f4             	lea    -0xc(%ebp),%esp
    1a5a:	5b                   	pop    %ebx
    1a5b:	5e                   	pop    %esi
    1a5c:	5f                   	pop    %edi
    1a5d:	5d                   	pop    %ebp
    1a5e:	c3                   	ret
      printf(1, "fork failed\n");
    1a5f:	83 ec 08             	sub    $0x8,%esp
    1a62:	68 79 4c 00 00       	push   $0x4c79
    1a67:	6a 01                	push   $0x1
    1a69:	e8 a2 1f 00 00       	call   3a10 <printf>
      exit();
    1a6e:	e8 40 1e 00 00       	call   38b3 <exit>
      close(fd);
    1a73:	83 ec 0c             	sub    $0xc,%esp
    1a76:	50                   	push   %eax
    1a77:	e8 5f 1e 00 00       	call   38db <close>
    1a7c:	83 c4 10             	add    $0x10,%esp
    1a7f:	e9 cd fe ff ff       	jmp    1951 <concreate+0x181>
        printf(1, "concreate weird file %s\n", de.name);
    1a84:	83 ec 04             	sub    $0x4,%esp
    1a87:	8d 45 b2             	lea    -0x4e(%ebp),%eax
    1a8a:	50                   	push   %eax
    1a8b:	68 c0 43 00 00       	push   $0x43c0
    1a90:	6a 01                	push   $0x1
    1a92:	e8 79 1f 00 00       	call   3a10 <printf>
        exit();
    1a97:	e8 17 1e 00 00       	call   38b3 <exit>
    printf(1, "concreate not enough files in directory listing\n");
    1a9c:	51                   	push   %ecx
    1a9d:	51                   	push   %ecx
    1a9e:	68 40 4f 00 00       	push   $0x4f40
    1aa3:	6a 01                	push   $0x1
    1aa5:	e8 66 1f 00 00       	call   3a10 <printf>
    exit();
    1aaa:	e8 04 1e 00 00       	call   38b3 <exit>
        printf(1, "concreate duplicate file %s\n", de.name);
    1aaf:	83 ec 04             	sub    $0x4,%esp
    1ab2:	8d 45 b2             	lea    -0x4e(%ebp),%eax
    1ab5:	50                   	push   %eax
    1ab6:	68 d9 43 00 00       	push   $0x43d9
    1abb:	6a 01                	push   $0x1
    1abd:	e8 4e 1f 00 00       	call   3a10 <printf>
        exit();
    1ac2:	e8 ec 1d 00 00       	call   38b3 <exit>
    1ac7:	8d b4 26 00 00 00 00 	lea    0x0(%esi,%eiz,1),%esi
    1ace:	66 90                	xchg   %ax,%ax

00001ad0 <linkunlink>:
{
    1ad0:	55                   	push   %ebp
    1ad1:	89 e5                	mov    %esp,%ebp
    1ad3:	57                   	push   %edi
    1ad4:	56                   	push   %esi
    1ad5:	53                   	push   %ebx
    1ad6:	83 ec 24             	sub    $0x24,%esp
  printf(1, "linkunlink test\n");
    1ad9:	68 04 44 00 00       	push   $0x4404
    1ade:	6a 01                	push   $0x1
    1ae0:	e8 2b 1f 00 00       	call   3a10 <printf>
  unlink("x");
    1ae5:	c7 04 24 91 46 00 00 	movl   $0x4691,(%esp)
    1aec:	e8 12 1e 00 00       	call   3903 <unlink>
  pid = fork();
    1af1:	e8 b5 1d 00 00       	call   38ab <fork>
  if(pid < 0){
    1af6:	83 c4 10             	add    $0x10,%esp
  pid = fork();
    1af9:	89 45 e4             	mov    %eax,-0x1c(%ebp)
  if(pid < 0){
    1afc:	85 c0                	test   %eax,%eax
    1afe:	0f 88 b6 00 00 00    	js     1bba <linkunlink+0xea>
  unsigned int x = (pid ? 1 : 97);
    1b04:	83 7d e4 01          	cmpl   $0x1,-0x1c(%ebp)
    1b08:	bb 64 00 00 00       	mov    $0x64,%ebx
    if((x % 3) == 0){
    1b0d:	be ab aa aa aa       	mov    $0xaaaaaaab,%esi
  unsigned int x = (pid ? 1 : 97);
    1b12:	19 ff                	sbb    %edi,%edi
    1b14:	83 e7 60             	and    $0x60,%edi
    1b17:	83 c7 01             	add    $0x1,%edi
    1b1a:	eb 1e                	jmp    1b3a <linkunlink+0x6a>
    1b1c:	8d 74 26 00          	lea    0x0(%esi,%eiz,1),%esi
    } else if((x % 3) == 1){
    1b20:	83 f8 01             	cmp    $0x1,%eax
    1b23:	74 7b                	je     1ba0 <linkunlink+0xd0>
      unlink("x");
    1b25:	83 ec 0c             	sub    $0xc,%esp
    1b28:	68 91 46 00 00       	push   $0x4691
    1b2d:	e8 d1 1d 00 00       	call   3903 <unlink>
    1b32:	83 c4 10             	add    $0x10,%esp
  for(i = 0; i < 100; i++){
    1b35:	83 eb 01             	sub    $0x1,%ebx
    1b38:	74 41                	je     1b7b <linkunlink+0xab>
    x = x * 1103515245 + 12345;
    1b3a:	69 cf 6d 4e c6 41    	imul   $0x41c64e6d,%edi,%ecx
    1b40:	8d b9 39 30 00 00    	lea    0x3039(%ecx),%edi
    if((x % 3) == 0){
    1b46:	89 f8                	mov    %edi,%eax
    1b48:	f7 e6                	mul    %esi
    1b4a:	89 d0                	mov    %edx,%eax
    1b4c:	83 e2 fe             	and    $0xfffffffe,%edx
    1b4f:	d1 e8                	shr    %eax
    1b51:	01 c2                	add    %eax,%edx
    1b53:	89 f8                	mov    %edi,%eax
    1b55:	29 d0                	sub    %edx,%eax
    1b57:	75 c7                	jne    1b20 <linkunlink+0x50>
      close(open("x", O_RDWR | O_CREATE));
    1b59:	83 ec 08             	sub    $0x8,%esp
    1b5c:	68 02 02 00 00       	push   $0x202
    1b61:	68 91 46 00 00       	push   $0x4691
    1b66:	e8 88 1d 00 00       	call   38f3 <open>
    1b6b:	89 04 24             	mov    %eax,(%esp)
    1b6e:	e8 68 1d 00 00       	call   38db <close>
    1b73:	83 c4 10             	add    $0x10,%esp
  for(i = 0; i < 100; i++){
    1b76:	83 eb 01             	sub    $0x1,%ebx
    1b79:	75 bf                	jne    1b3a <linkunlink+0x6a>
  if(pid)
    1b7b:	8b 45 e4             	mov    -0x1c(%ebp),%eax
    1b7e:	85 c0                	test   %eax,%eax
    1b80:	74 4b                	je     1bcd <linkunlink+0xfd>
    wait();
    1b82:	e8 34 1d 00 00       	call   38bb <wait>
  printf(1, "linkunlink ok\n");
    1b87:	83 ec 08             	sub    $0x8,%esp
    1b8a:	68 19 44 00 00       	push   $0x4419
    1b8f:	6a 01                	push   $0x1
    1b91:	e8 7a 1e 00 00       	call   3a10 <printf>
}
    1b96:	8d 65 f4             	lea    -0xc(%ebp),%esp
    1b99:	5b                   	pop    %ebx
    1b9a:	5e                   	pop    %esi
    1b9b:	5f                   	pop    %edi
    1b9c:	5d                   	pop    %ebp
    1b9d:	c3                   	ret
    1b9e:	66 90                	xchg   %ax,%ax
      link("cat", "x");
    1ba0:	83 ec 08             	sub    $0x8,%esp
    1ba3:	68 91 46 00 00       	push   $0x4691
    1ba8:	68 15 44 00 00       	push   $0x4415
    1bad:	e8 61 1d 00 00       	call   3913 <link>
    1bb2:	83 c4 10             	add    $0x10,%esp
    1bb5:	e9 7b ff ff ff       	jmp    1b35 <linkunlink+0x65>
    printf(1, "fork failed\n");
    1bba:	52                   	push   %edx
    1bbb:	52                   	push   %edx
    1bbc:	68 79 4c 00 00       	push   $0x4c79
    1bc1:	6a 01                	push   $0x1
    1bc3:	e8 48 1e 00 00       	call   3a10 <printf>
    exit();
    1bc8:	e8 e6 1c 00 00       	call   38b3 <exit>
    exit();
    1bcd:	e8 e1 1c 00 00       	call   38b3 <exit>
    1bd2:	8d b4 26 00 00 00 00 	lea    0x0(%esi,%eiz,1),%esi
    1bd9:	8d b4 26 00 00 00 00 	lea    0x0(%esi,%eiz,1),%esi

00001be0 <bigdir>:
{
    1be0:	55                   	push   %ebp
    1be1:	89 e5                	mov    %esp,%ebp
    1be3:	57                   	push   %edi
    1be4:	56                   	push   %esi
    1be5:	53                   	push   %ebx
    1be6:	83 ec 24             	sub    $0x24,%esp
  printf(1, "bigdir test\n");
    1be9:	68 28 44 00 00       	push   $0x4428
    1bee:	6a 01                	push   $0x1
    1bf0:	e8 1b 1e 00 00       	call   3a10 <printf>
  unlink("bd");
    1bf5:	c7 04 24 35 44 00 00 	movl   $0x4435,(%esp)
    1bfc:	e8 02 1d 00 00       	call   3903 <unlink>
  fd = open("bd", O_CREATE);
    1c01:	5a                   	pop    %edx
    1c02:	59                   	pop    %ecx
    1c03:	68 00 02 00 00       	push   $0x200
    1c08:	68 35 44 00 00       	push   $0x4435
    1c0d:	e8 e1 1c 00 00       	call   38f3 <open>
  if(fd < 0){
    1c12:	83 c4 10             	add    $0x10,%esp
    1c15:	85 c0                	test   %eax,%eax
    1c17:	0f 88 de 00 00 00    	js     1cfb <bigdir+0x11b>
  close(fd);
    1c1d:	83 ec 0c             	sub    $0xc,%esp
  for(i = 0; i < 500; i++){
    1c20:	31 f6                	xor    %esi,%esi
    1c22:	8d 7d de             	lea    -0x22(%ebp),%edi
  close(fd);
    1c25:	50                   	push   %eax
    1c26:	e8 b0 1c 00 00       	call   38db <close>
    1c2b:	83 c4 10             	add    $0x10,%esp
    1c2e:	66 90                	xchg   %ax,%ax
    name[1] = '0' + (i / 64);
    1c30:	89 f0                	mov    %esi,%eax
    if(link("bd", name) != 0){
    1c32:	83 ec 08             	sub    $0x8,%esp
    name[0] = 'x';
    1c35:	c6 45 de 78          	movb   $0x78,-0x22(%ebp)
    name[1] = '0' + (i / 64);
    1c39:	c1 f8 06             	sar    $0x6,%eax
    name[3] = '\0';
    1c3c:	c6 45 e1 00          	movb   $0x0,-0x1f(%ebp)
    name[1] = '0' + (i / 64);
    1c40:	83 c0 30             	add    $0x30,%eax
    1c43:	88 45 df             	mov    %al,-0x21(%ebp)
    name[2] = '0' + (i % 64);
    1c46:	89 f0                	mov    %esi,%eax
    1c48:	83 e0 3f             	and    $0x3f,%eax
    1c4b:	83 c0 30             	add    $0x30,%eax
    1c4e:	88 45 e0             	mov    %al,-0x20(%ebp)
    if(link("bd", name) != 0){
    1c51:	57                   	push   %edi
    1c52:	68 35 44 00 00       	push   $0x4435
    1c57:	e8 b7 1c 00 00       	call   3913 <link>
    1c5c:	83 c4 10             	add    $0x10,%esp
    1c5f:	89 c3                	mov    %eax,%ebx
    1c61:	85 c0                	test   %eax,%eax
    1c63:	75 6e                	jne    1cd3 <bigdir+0xf3>
  for(i = 0; i < 500; i++){
    1c65:	83 c6 01             	add    $0x1,%esi
    1c68:	81 fe f4 01 00 00    	cmp    $0x1f4,%esi
    1c6e:	75 c0                	jne    1c30 <bigdir+0x50>
  unlink("bd");
    1c70:	83 ec 0c             	sub    $0xc,%esp
    1c73:	68 35 44 00 00       	push   $0x4435
    1c78:	e8 86 1c 00 00       	call   3903 <unlink>
    1c7d:	83 c4 10             	add    $0x10,%esp
    name[1] = '0' + (i / 64);
    1c80:	89 d8                	mov    %ebx,%eax
    if(unlink(name) != 0){
    1c82:	83 ec 0c             	sub    $0xc,%esp
    name[0] = 'x';
    1c85:	c6 45 de 78          	movb   $0x78,-0x22(%ebp)
    name[1] = '0' + (i / 64);
    1c89:	c1 f8 06             	sar    $0x6,%eax
    name[3] = '\0';
    1c8c:	c6 45 e1 00          	movb   $0x0,-0x1f(%ebp)
    name[1] = '0' + (i / 64);
    1c90:	83 c0 30             	add    $0x30,%eax
    1c93:	88 45 df             	mov    %al,-0x21(%ebp)
    name[2] = '0' + (i % 64);
    1c96:	89 d8                	mov    %ebx,%eax
    1c98:	83 e0 3f             	and    $0x3f,%eax
    1c9b:	83 c0 30             	add    $0x30,%eax
    1c9e:	88 45 e0             	mov    %al,-0x20(%ebp)
    if(unlink(name) != 0){
    1ca1:	57                   	push   %edi
    1ca2:	e8 5c 1c 00 00       	call   3903 <unlink>
    1ca7:	83 c4 10             	add    $0x10,%esp
    1caa:	85 c0                	test   %eax,%eax
    1cac:	75 39                	jne    1ce7 <bigdir+0x107>
  for(i = 0; i < 500; i++){
    1cae:	83 c3 01             	add    $0x1,%ebx
    1cb1:	81 fb f4 01 00 00    	cmp    $0x1f4,%ebx
    1cb7:	75 c7                	jne    1c80 <bigdir+0xa0>
  printf(1, "bigdir ok\n");
    1cb9:	83 ec 08             	sub    $0x8,%esp
    1cbc:	68 77 44 00 00       	push   $0x4477
    1cc1:	6a 01                	push   $0x1
    1cc3:	e8 48 1d 00 00       	call   3a10 <printf>
    1cc8:	83 c4 10             	add    $0x10,%esp
}
    1ccb:	8d 65 f4             	lea    -0xc(%ebp),%esp
    1cce:	5b                   	pop    %ebx
    1ccf:	5e                   	pop    %esi
    1cd0:	5f                   	pop    %edi
    1cd1:	5d                   	pop    %ebp
    1cd2:	c3                   	ret
      printf(1, "bigdir link failed\n");
    1cd3:	83 ec 08             	sub    $0x8,%esp
    1cd6:	68 4e 44 00 00       	push   $0x444e
    1cdb:	6a 01                	push   $0x1
    1cdd:	e8 2e 1d 00 00       	call   3a10 <printf>
      exit();
    1ce2:	e8 cc 1b 00 00       	call   38b3 <exit>
      printf(1, "bigdir unlink failed");
    1ce7:	83 ec 08             	sub    $0x8,%esp
    1cea:	68 62 44 00 00       	push   $0x4462
    1cef:	6a 01                	push   $0x1
    1cf1:	e8 1a 1d 00 00       	call   3a10 <printf>
      exit();
    1cf6:	e8 b8 1b 00 00       	call   38b3 <exit>
    printf(1, "bigdir create failed\n");
    1cfb:	50                   	push   %eax
    1cfc:	50                   	push   %eax
    1cfd:	68 38 44 00 00       	push   $0x4438
    1d02:	6a 01                	push   $0x1
    1d04:	e8 07 1d 00 00       	call   3a10 <printf>
    exit();
    1d09:	e8 a5 1b 00 00       	call   38b3 <exit>
    1d0e:	66 90                	xchg   %ax,%ax

00001d10 <subdir>:
{
    1d10:	55                   	push   %ebp
    1d11:	89 e5                	mov    %esp,%ebp
    1d13:	53                   	push   %ebx
    1d14:	83 ec 0c             	sub    $0xc,%esp
  printf(1, "subdir test\n");
    1d17:	68 82 44 00 00       	push   $0x4482
    1d1c:	6a 01                	push   $0x1
    1d1e:	e8 ed 1c 00 00       	call   3a10 <printf>
  unlink("ff");
    1d23:	c7 04 24 0b 45 00 00 	movl   $0x450b,(%esp)
    1d2a:	e8 d4 1b 00 00       	call   3903 <unlink>
  if(mkdir("dd") != 0){
    1d2f:	c7 04 24 a8 45 00 00 	movl   $0x45a8,(%esp)
    1d36:	e8 e0 1b 00 00       	call   391b <mkdir>
    1d3b:	83 c4 10             	add    $0x10,%esp
    1d3e:	85 c0                	test   %eax,%eax
    1d40:	0f 85 b3 05 00 00    	jne    22f9 <subdir+0x5e9>
  fd = open("dd/ff", O_CREATE | O_RDWR);
    1d46:	83 ec 08             	sub    $0x8,%esp
    1d49:	68 02 02 00 00       	push   $0x202
    1d4e:	68 e1 44 00 00       	push   $0x44e1
    1d53:	e8 9b 1b 00 00       	call   38f3 <open>
  if(fd < 0){
    1d58:	83 c4 10             	add    $0x10,%esp
  fd = open("dd/ff", O_CREATE | O_RDWR);
    1d5b:	89 c3                	mov    %eax,%ebx
  if(fd < 0){
    1d5d:	85 c0                	test   %eax,%eax
    1d5f:	0f 88 81 05 00 00    	js     22e6 <subdir+0x5d6>
  write(fd, "ff", 2);
    1d65:	83 ec 04             	sub    $0x4,%esp
    1d68:	6a 02                	push   $0x2
    1d6a:	68 0b 45 00 00       	push   $0x450b
    1d6f:	50                   	push   %eax
    1d70:	e8 5e 1b 00 00       	call   38d3 <write>
  close(fd);
    1d75:	89 1c 24             	mov    %ebx,(%esp)
    1d78:	e8 5e 1b 00 00       	call   38db <close>
  if(unlink("dd") >= 0){
    1d7d:	c7 04 24 a8 45 00 00 	movl   $0x45a8,(%esp)
    1d84:	e8 7a 1b 00 00       	call   3903 <unlink>
    1d89:	83 c4 10             	add    $0x10,%esp
    1d8c:	85 c0                	test   %eax,%eax
    1d8e:	0f 89 3f 05 00 00    	jns    22d3 <subdir+0x5c3>
  if(mkdir("/dd/dd") != 0){
    1d94:	83 ec 0c             	sub    $0xc,%esp
    1d97:	68 bc 44 00 00       	push   $0x44bc
    1d9c:	e8 7a 1b 00 00       	call   391b <mkdir>
    1da1:	83 c4 10             	add    $0x10,%esp
    1da4:	85 c0                	test   %eax,%eax
    1da6:	0f 85 14 05 00 00    	jne    22c0 <subdir+0x5b0>
  fd = open("dd/dd/ff", O_CREATE | O_RDWR);
    1dac:	83 ec 08             	sub    $0x8,%esp
    1daf:	68 02 02 00 00       	push   $0x202
    1db4:	68 de 44 00 00       	push   $0x44de
    1db9:	e8 35 1b 00 00       	call   38f3 <open>
  if(fd < 0){
    1dbe:	83 c4 10             	add    $0x10,%esp
  fd = open("dd/dd/ff", O_CREATE | O_RDWR);
    1dc1:	89 c3                	mov    %eax,%ebx
  if(fd < 0){
    1dc3:	85 c0                	test   %eax,%eax
    1dc5:	0f 88 24 04 00 00    	js     21ef <subdir+0x4df>
  write(fd, "FF", 2);
    1dcb:	83 ec 04             	sub    $0x4,%esp
    1dce:	6a 02                	push   $0x2
    1dd0:	68 ff 44 00 00       	push   $0x44ff
    1dd5:	50                   	push   %eax
    1dd6:	e8 f8 1a 00 00       	call   38d3 <write>
  close(fd);
    1ddb:	89 1c 24             	mov    %ebx,(%esp)
    1dde:	e8 f8 1a 00 00       	call   38db <close>
  fd = open("dd/dd/../ff", 0);
    1de3:	58                   	pop    %eax
    1de4:	5a                   	pop    %edx
    1de5:	6a 00                	push   $0x0
    1de7:	68 02 45 00 00       	push   $0x4502
    1dec:	e8 02 1b 00 00       	call   38f3 <open>
  if(fd < 0){
    1df1:	83 c4 10             	add    $0x10,%esp
  fd = open("dd/dd/../ff", 0);
    1df4:	89 c3                	mov    %eax,%ebx
  if(fd < 0){
    1df6:	85 c0                	test   %eax,%eax
    1df8:	0f 88 de 03 00 00    	js     21dc <subdir+0x4cc>
  cc = read(fd, buf, sizeof(buf));
    1dfe:	83 ec 04             	sub    $0x4,%esp
    1e01:	68 00 20 00 00       	push   $0x2000
    1e06:	68 60 85 00 00       	push   $0x8560
    1e0b:	50                   	push   %eax
    1e0c:	e8 ba 1a 00 00       	call   38cb <read>
  if(cc != 2 || buf[0] != 'f'){
    1e11:	83 c4 10             	add    $0x10,%esp
    1e14:	83 f8 02             	cmp    $0x2,%eax
    1e17:	0f 85 3a 03 00 00    	jne    2157 <subdir+0x447>
    1e1d:	80 3d 60 85 00 00 66 	cmpb   $0x66,0x8560
    1e24:	0f 85 2d 03 00 00    	jne    2157 <subdir+0x447>
  close(fd);
    1e2a:	83 ec 0c             	sub    $0xc,%esp
    1e2d:	53                   	push   %ebx
    1e2e:	e8 a8 1a 00 00       	call   38db <close>
  if(link("dd/dd/ff", "dd/dd/ffff") != 0){
    1e33:	59                   	pop    %ecx
    1e34:	5b                   	pop    %ebx
    1e35:	68 42 45 00 00       	push   $0x4542
    1e3a:	68 de 44 00 00       	push   $0x44de
    1e3f:	e8 cf 1a 00 00       	call   3913 <link>
    1e44:	83 c4 10             	add    $0x10,%esp
    1e47:	85 c0                	test   %eax,%eax
    1e49:	0f 85 c6 03 00 00    	jne    2215 <subdir+0x505>
  if(unlink("dd/dd/ff") != 0){
    1e4f:	83 ec 0c             	sub    $0xc,%esp
    1e52:	68 de 44 00 00       	push   $0x44de
    1e57:	e8 a7 1a 00 00       	call   3903 <unlink>
    1e5c:	83 c4 10             	add    $0x10,%esp
    1e5f:	85 c0                	test   %eax,%eax
    1e61:	0f 85 16 03 00 00    	jne    217d <subdir+0x46d>
  if(open("dd/dd/ff", O_RDONLY) >= 0){
    1e67:	83 ec 08             	sub    $0x8,%esp
    1e6a:	6a 00                	push   $0x0
    1e6c:	68 de 44 00 00       	push   $0x44de
    1e71:	e8 7d 1a 00 00       	call   38f3 <open>
    1e76:	83 c4 10             	add    $0x10,%esp
    1e79:	85 c0                	test   %eax,%eax
    1e7b:	0f 89 2c 04 00 00    	jns    22ad <subdir+0x59d>
  if(chdir("dd") != 0){
    1e81:	83 ec 0c             	sub    $0xc,%esp
    1e84:	68 a8 45 00 00       	push   $0x45a8
    1e89:	e8 95 1a 00 00       	call   3923 <chdir>
    1e8e:	83 c4 10             	add    $0x10,%esp
    1e91:	85 c0                	test   %eax,%eax
    1e93:	0f 85 01 04 00 00    	jne    229a <subdir+0x58a>
  if(chdir("dd/../../dd") != 0){
    1e99:	83 ec 0c             	sub    $0xc,%esp
    1e9c:	68 76 45 00 00       	push   $0x4576
    1ea1:	e8 7d 1a 00 00       	call   3923 <chdir>
    1ea6:	83 c4 10             	add    $0x10,%esp
    1ea9:	85 c0                	test   %eax,%eax
    1eab:	0f 85 b9 02 00 00    	jne    216a <subdir+0x45a>
  if(chdir("dd/../../../dd") != 0){
    1eb1:	83 ec 0c             	sub    $0xc,%esp
    1eb4:	68 9c 45 00 00       	push   $0x459c
    1eb9:	e8 65 1a 00 00       	call   3923 <chdir>
    1ebe:	83 c4 10             	add    $0x10,%esp
    1ec1:	85 c0                	test   %eax,%eax
    1ec3:	0f 85 a1 02 00 00    	jne    216a <subdir+0x45a>
  if(chdir("./..") != 0){
    1ec9:	83 ec 0c             	sub    $0xc,%esp
    1ecc:	68 ab 45 00 00       	push   $0x45ab
    1ed1:	e8 4d 1a 00 00       	call   3923 <chdir>
    1ed6:	83 c4 10             	add    $0x10,%esp
    1ed9:	85 c0                	test   %eax,%eax
    1edb:	0f 85 21 03 00 00    	jne    2202 <subdir+0x4f2>
  fd = open("dd/dd/ffff", 0);
    1ee1:	83 ec 08             	sub    $0x8,%esp
    1ee4:	6a 00                	push   $0x0
    1ee6:	68 42 45 00 00       	push   $0x4542
    1eeb:	e8 03 1a 00 00       	call   38f3 <open>
  if(fd < 0){
    1ef0:	83 c4 10             	add    $0x10,%esp
  fd = open("dd/dd/ffff", 0);
    1ef3:	89 c3                	mov    %eax,%ebx
  if(fd < 0){
    1ef5:	85 c0                	test   %eax,%eax
    1ef7:	0f 88 e0 04 00 00    	js     23dd <subdir+0x6cd>
  if(read(fd, buf, sizeof(buf)) != 2){
    1efd:	83 ec 04             	sub    $0x4,%esp
    1f00:	68 00 20 00 00       	push   $0x2000
    1f05:	68 60 85 00 00       	push   $0x8560
    1f0a:	50                   	push   %eax
    1f0b:	e8 bb 19 00 00       	call   38cb <read>
    1f10:	83 c4 10             	add    $0x10,%esp
    1f13:	83 f8 02             	cmp    $0x2,%eax
    1f16:	0f 85 ae 04 00 00    	jne    23ca <subdir+0x6ba>
  close(fd);
    1f1c:	83 ec 0c             	sub    $0xc,%esp
    1f1f:	53                   	push   %ebx
    1f20:	e8 b6 19 00 00       	call   38db <close>
  if(open("dd/dd/ff", O_RDONLY) >= 0){
    1f25:	58                   	pop    %eax
    1f26:	5a                   	pop    %edx
    1f27:	6a 00                	push   $0x0
    1f29:	68 de 44 00 00       	push   $0x44de
    1f2e:	e8 c0 19 00 00       	call   38f3 <open>
    1f33:	83 c4 10             	add    $0x10,%esp
    1f36:	85 c0                	test   %eax,%eax
    1f38:	0f 89 65 02 00 00    	jns    21a3 <subdir+0x493>
  if(open("dd/ff/ff", O_CREATE|O_RDWR) >= 0){
    1f3e:	83 ec 08             	sub    $0x8,%esp
    1f41:	68 02 02 00 00       	push   $0x202
    1f46:	68 f6 45 00 00       	push   $0x45f6
    1f4b:	e8 a3 19 00 00       	call   38f3 <open>
    1f50:	83 c4 10             	add    $0x10,%esp
    1f53:	85 c0                	test   %eax,%eax
    1f55:	0f 89 35 02 00 00    	jns    2190 <subdir+0x480>
  if(open("dd/xx/ff", O_CREATE|O_RDWR) >= 0){
    1f5b:	83 ec 08             	sub    $0x8,%esp
    1f5e:	68 02 02 00 00       	push   $0x202
    1f63:	68 1b 46 00 00       	push   $0x461b
    1f68:	e8 86 19 00 00       	call   38f3 <open>
    1f6d:	83 c4 10             	add    $0x10,%esp
    1f70:	85 c0                	test   %eax,%eax
    1f72:	0f 89 0f 03 00 00    	jns    2287 <subdir+0x577>
  if(open("dd", O_CREATE) >= 0){
    1f78:	83 ec 08             	sub    $0x8,%esp
    1f7b:	68 00 02 00 00       	push   $0x200
    1f80:	68 a8 45 00 00       	push   $0x45a8
    1f85:	e8 69 19 00 00       	call   38f3 <open>
    1f8a:	83 c4 10             	add    $0x10,%esp
    1f8d:	85 c0                	test   %eax,%eax
    1f8f:	0f 89 df 02 00 00    	jns    2274 <subdir+0x564>
  if(open("dd", O_RDWR) >= 0){
    1f95:	83 ec 08             	sub    $0x8,%esp
    1f98:	6a 02                	push   $0x2
    1f9a:	68 a8 45 00 00       	push   $0x45a8
    1f9f:	e8 4f 19 00 00       	call   38f3 <open>
    1fa4:	83 c4 10             	add    $0x10,%esp
    1fa7:	85 c0                	test   %eax,%eax
    1fa9:	0f 89 b2 02 00 00    	jns    2261 <subdir+0x551>
  if(open("dd", O_WRONLY) >= 0){
    1faf:	83 ec 08             	sub    $0x8,%esp
    1fb2:	6a 01                	push   $0x1
    1fb4:	68 a8 45 00 00       	push   $0x45a8
    1fb9:	e8 35 19 00 00       	call   38f3 <open>
    1fbe:	83 c4 10             	add    $0x10,%esp
    1fc1:	85 c0                	test   %eax,%eax
    1fc3:	0f 89 85 02 00 00    	jns    224e <subdir+0x53e>
  if(link("dd/ff/ff", "dd/dd/xx") == 0){
    1fc9:	83 ec 08             	sub    $0x8,%esp
    1fcc:	68 8a 46 00 00       	push   $0x468a
    1fd1:	68 f6 45 00 00       	push   $0x45f6
    1fd6:	e8 38 19 00 00       	call   3913 <link>
    1fdb:	83 c4 10             	add    $0x10,%esp
    1fde:	85 c0                	test   %eax,%eax
    1fe0:	0f 84 55 02 00 00    	je     223b <subdir+0x52b>
  if(link("dd/xx/ff", "dd/dd/xx") == 0){
    1fe6:	83 ec 08             	sub    $0x8,%esp
    1fe9:	68 8a 46 00 00       	push   $0x468a
    1fee:	68 1b 46 00 00       	push   $0x461b
    1ff3:	e8 1b 19 00 00       	call   3913 <link>
    1ff8:	83 c4 10             	add    $0x10,%esp
    1ffb:	85 c0                	test   %eax,%eax
    1ffd:	0f 84 25 02 00 00    	je     2228 <subdir+0x518>
  if(link("dd/ff", "dd/dd/ffff") == 0){
    2003:	83 ec 08             	sub    $0x8,%esp
    2006:	68 42 45 00 00       	push   $0x4542
    200b:	68 e1 44 00 00       	push   $0x44e1
    2010:	e8 fe 18 00 00       	call   3913 <link>
    2015:	83 c4 10             	add    $0x10,%esp
    2018:	85 c0                	test   %eax,%eax
    201a:	0f 84 a9 01 00 00    	je     21c9 <subdir+0x4b9>
  if(mkdir("dd/ff/ff") == 0){
    2020:	83 ec 0c             	sub    $0xc,%esp
    2023:	68 f6 45 00 00       	push   $0x45f6
    2028:	e8 ee 18 00 00       	call   391b <mkdir>
    202d:	83 c4 10             	add    $0x10,%esp
    2030:	85 c0                	test   %eax,%eax
    2032:	0f 84 7e 01 00 00    	je     21b6 <subdir+0x4a6>
  if(mkdir("dd/xx/ff") == 0){
    2038:	83 ec 0c             	sub    $0xc,%esp
    203b:	68 1b 46 00 00       	push   $0x461b
    2040:	e8 d6 18 00 00       	call   391b <mkdir>
    2045:	83 c4 10             	add    $0x10,%esp
    2048:	85 c0                	test   %eax,%eax
    204a:	0f 84 67 03 00 00    	je     23b7 <subdir+0x6a7>
  if(mkdir("dd/dd/ffff") == 0){
    2050:	83 ec 0c             	sub    $0xc,%esp
    2053:	68 42 45 00 00       	push   $0x4542
    2058:	e8 be 18 00 00       	call   391b <mkdir>
    205d:	83 c4 10             	add    $0x10,%esp
    2060:	85 c0                	test   %eax,%eax
    2062:	0f 84 3c 03 00 00    	je     23a4 <subdir+0x694>
  if(unlink("dd/xx/ff") == 0){
    2068:	83 ec 0c             	sub    $0xc,%esp
    206b:	68 1b 46 00 00       	push   $0x461b
    2070:	e8 8e 18 00 00       	call   3903 <unlink>
    2075:	83 c4 10             	add    $0x10,%esp
    2078:	85 c0                	test   %eax,%eax
    207a:	0f 84 11 03 00 00    	je     2391 <subdir+0x681>
  if(unlink("dd/ff/ff") == 0){
    2080:	83 ec 0c             	sub    $0xc,%esp
    2083:	68 f6 45 00 00       	push   $0x45f6
    2088:	e8 76 18 00 00       	call   3903 <unlink>
    208d:	83 c4 10             	add    $0x10,%esp
    2090:	85 c0                	test   %eax,%eax
    2092:	0f 84 e6 02 00 00    	je     237e <subdir+0x66e>
  if(chdir("dd/ff") == 0){
    2098:	83 ec 0c             	sub    $0xc,%esp
    209b:	68 e1 44 00 00       	push   $0x44e1
    20a0:	e8 7e 18 00 00       	call   3923 <chdir>
    20a5:	83 c4 10             	add    $0x10,%esp
    20a8:	85 c0                	test   %eax,%eax
    20aa:	0f 84 bb 02 00 00    	je     236b <subdir+0x65b>
  if(chdir("dd/xx") == 0){
    20b0:	83 ec 0c             	sub    $0xc,%esp
    20b3:	68 8d 46 00 00       	push   $0x468d
    20b8:	e8 66 18 00 00       	call   3923 <chdir>
    20bd:	83 c4 10             	add    $0x10,%esp
    20c0:	85 c0                	test   %eax,%eax
    20c2:	0f 84 90 02 00 00    	je     2358 <subdir+0x648>
  if(unlink("dd/dd/ffff") != 0){
    20c8:	83 ec 0c             	sub    $0xc,%esp
    20cb:	68 42 45 00 00       	push   $0x4542
    20d0:	e8 2e 18 00 00       	call   3903 <unlink>
    20d5:	83 c4 10             	add    $0x10,%esp
    20d8:	85 c0                	test   %eax,%eax
    20da:	0f 85 9d 00 00 00    	jne    217d <subdir+0x46d>
  if(unlink("dd/ff") != 0){
    20e0:	83 ec 0c             	sub    $0xc,%esp
    20e3:	68 e1 44 00 00       	push   $0x44e1
    20e8:	e8 16 18 00 00       	call   3903 <unlink>
    20ed:	83 c4 10             	add    $0x10,%esp
    20f0:	85 c0                	test   %eax,%eax
    20f2:	0f 85 4d 02 00 00    	jne    2345 <subdir+0x635>
  if(unlink("dd") == 0){
    20f8:	83 ec 0c             	sub    $0xc,%esp
    20fb:	68 a8 45 00 00       	push   $0x45a8
    2100:	e8 fe 17 00 00       	call   3903 <unlink>
    2105:	83 c4 10             	add    $0x10,%esp
    2108:	85 c0                	test   %eax,%eax
    210a:	0f 84 22 02 00 00    	je     2332 <subdir+0x622>
  if(unlink("dd/dd") < 0){
    2110:	83 ec 0c             	sub    $0xc,%esp
    2113:	68 bd 44 00 00       	push   $0x44bd
    2118:	e8 e6 17 00 00       	call   3903 <unlink>
    211d:	83 c4 10             	add    $0x10,%esp
    2120:	85 c0                	test   %eax,%eax
    2122:	0f 88 f7 01 00 00    	js     231f <subdir+0x60f>
  if(unlink("dd") < 0){
    2128:	83 ec 0c             	sub    $0xc,%esp
    212b:	68 a8 45 00 00       	push   $0x45a8
    2130:	e8 ce 17 00 00       	call   3903 <unlink>
    2135:	83 c4 10             	add    $0x10,%esp
    2138:	85 c0                	test   %eax,%eax
    213a:	0f 88 cc 01 00 00    	js     230c <subdir+0x5fc>
  printf(1, "subdir ok\n");
    2140:	83 ec 08             	sub    $0x8,%esp
    2143:	68 8a 47 00 00       	push   $0x478a
    2148:	6a 01                	push   $0x1
    214a:	e8 c1 18 00 00       	call   3a10 <printf>
}
    214f:	8b 5d fc             	mov    -0x4(%ebp),%ebx
    2152:	83 c4 10             	add    $0x10,%esp
    2155:	c9                   	leave
    2156:	c3                   	ret
    printf(1, "dd/dd/../ff wrong content\n");
    2157:	50                   	push   %eax
    2158:	50                   	push   %eax
    2159:	68 27 45 00 00       	push   $0x4527
    215e:	6a 01                	push   $0x1
    2160:	e8 ab 18 00 00       	call   3a10 <printf>
    exit();
    2165:	e8 49 17 00 00       	call   38b3 <exit>
    printf(1, "chdir dd/../../dd failed\n");
    216a:	50                   	push   %eax
    216b:	50                   	push   %eax
    216c:	68 82 45 00 00       	push   $0x4582
    2171:	6a 01                	push   $0x1
    2173:	e8 98 18 00 00       	call   3a10 <printf>
    exit();
    2178:	e8 36 17 00 00       	call   38b3 <exit>
    printf(1, "unlink dd/dd/ff failed\n");
    217d:	50                   	push   %eax
    217e:	50                   	push   %eax
    217f:	68 4d 45 00 00       	push   $0x454d
    2184:	6a 01                	push   $0x1
    2186:	e8 85 18 00 00       	call   3a10 <printf>
    exit();
    218b:	e8 23 17 00 00       	call   38b3 <exit>
    printf(1, "create dd/ff/ff succeeded!\n");
    2190:	51                   	push   %ecx
    2191:	51                   	push   %ecx
    2192:	68 ff 45 00 00       	push   $0x45ff
    2197:	6a 01                	push   $0x1
    2199:	e8 72 18 00 00       	call   3a10 <printf>
    exit();
    219e:	e8 10 17 00 00       	call   38b3 <exit>
    printf(1, "open (unlinked) dd/dd/ff succeeded!\n");
    21a3:	53                   	push   %ebx
    21a4:	53                   	push   %ebx
    21a5:	68 e4 4f 00 00       	push   $0x4fe4
    21aa:	6a 01                	push   $0x1
    21ac:	e8 5f 18 00 00       	call   3a10 <printf>
    exit();
    21b1:	e8 fd 16 00 00       	call   38b3 <exit>
    printf(1, "mkdir dd/ff/ff succeeded!\n");
    21b6:	51                   	push   %ecx
    21b7:	51                   	push   %ecx
    21b8:	68 93 46 00 00       	push   $0x4693
    21bd:	6a 01                	push   $0x1
    21bf:	e8 4c 18 00 00       	call   3a10 <printf>
    exit();
    21c4:	e8 ea 16 00 00       	call   38b3 <exit>
    printf(1, "link dd/ff dd/dd/ffff succeeded!\n");
    21c9:	53                   	push   %ebx
    21ca:	53                   	push   %ebx
    21cb:	68 54 50 00 00       	push   $0x5054
    21d0:	6a 01                	push   $0x1
    21d2:	e8 39 18 00 00       	call   3a10 <printf>
    exit();
    21d7:	e8 d7 16 00 00       	call   38b3 <exit>
    printf(1, "open dd/dd/../ff failed\n");
    21dc:	50                   	push   %eax
    21dd:	50                   	push   %eax
    21de:	68 0e 45 00 00       	push   $0x450e
    21e3:	6a 01                	push   $0x1
    21e5:	e8 26 18 00 00       	call   3a10 <printf>
    exit();
    21ea:	e8 c4 16 00 00       	call   38b3 <exit>
    printf(1, "create dd/dd/ff failed\n");
    21ef:	51                   	push   %ecx
    21f0:	51                   	push   %ecx
    21f1:	68 e7 44 00 00       	push   $0x44e7
    21f6:	6a 01                	push   $0x1
    21f8:	e8 13 18 00 00       	call   3a10 <printf>
    exit();
    21fd:	e8 b1 16 00 00       	call   38b3 <exit>
    printf(1, "chdir ./.. failed\n");
    2202:	50                   	push   %eax
    2203:	50                   	push   %eax
    2204:	68 b0 45 00 00       	push   $0x45b0
    2209:	6a 01                	push   $0x1
    220b:	e8 00 18 00 00       	call   3a10 <printf>
    exit();
    2210:	e8 9e 16 00 00       	call   38b3 <exit>
    printf(1, "link dd/dd/ff dd/dd/ffff failed\n");
    2215:	52                   	push   %edx
    2216:	52                   	push   %edx
    2217:	68 9c 4f 00 00       	push   $0x4f9c
    221c:	6a 01                	push   $0x1
    221e:	e8 ed 17 00 00       	call   3a10 <printf>
    exit();
    2223:	e8 8b 16 00 00       	call   38b3 <exit>
    printf(1, "link dd/xx/ff dd/dd/xx succeeded!\n");
    2228:	50                   	push   %eax
    2229:	50                   	push   %eax
    222a:	68 30 50 00 00       	push   $0x5030
    222f:	6a 01                	push   $0x1
    2231:	e8 da 17 00 00       	call   3a10 <printf>
    exit();
    2236:	e8 78 16 00 00       	call   38b3 <exit>
    printf(1, "link dd/ff/ff dd/dd/xx succeeded!\n");
    223b:	50                   	push   %eax
    223c:	50                   	push   %eax
    223d:	68 0c 50 00 00       	push   $0x500c
    2242:	6a 01                	push   $0x1
    2244:	e8 c7 17 00 00       	call   3a10 <printf>
    exit();
    2249:	e8 65 16 00 00       	call   38b3 <exit>
    printf(1, "open dd wronly succeeded!\n");
    224e:	50                   	push   %eax
    224f:	50                   	push   %eax
    2250:	68 6f 46 00 00       	push   $0x466f
    2255:	6a 01                	push   $0x1
    2257:	e8 b4 17 00 00       	call   3a10 <printf>
    exit();
    225c:	e8 52 16 00 00       	call   38b3 <exit>
    printf(1, "open dd rdwr succeeded!\n");
    2261:	50                   	push   %eax
    2262:	50                   	push   %eax
    2263:	68 56 46 00 00       	push   $0x4656
    2268:	6a 01                	push   $0x1
    226a:	e8 a1 17 00 00       	call   3a10 <printf>
    exit();
    226f:	e8 3f 16 00 00       	call   38b3 <exit>
    printf(1, "create dd succeeded!\n");
    2274:	50                   	push   %eax
    2275:	50                   	push   %eax
    2276:	68 40 46 00 00       	push   $0x4640
    227b:	6a 01                	push   $0x1
    227d:	e8 8e 17 00 00       	call   3a10 <printf>
    exit();
    2282:	e8 2c 16 00 00       	call   38b3 <exit>
    printf(1, "create dd/xx/ff succeeded!\n");
    2287:	52                   	push   %edx
    2288:	52                   	push   %edx
    2289:	68 24 46 00 00       	push   $0x4624
    228e:	6a 01                	push   $0x1
    2290:	e8 7b 17 00 00       	call   3a10 <printf>
    exit();
    2295:	e8 19 16 00 00       	call   38b3 <exit>
    printf(1, "chdir dd failed\n");
    229a:	50                   	push   %eax
    229b:	50                   	push   %eax
    229c:	68 65 45 00 00       	push   $0x4565
    22a1:	6a 01                	push   $0x1
    22a3:	e8 68 17 00 00       	call   3a10 <printf>
    exit();
    22a8:	e8 06 16 00 00       	call   38b3 <exit>
    printf(1, "open (unlinked) dd/dd/ff succeeded\n");
    22ad:	50                   	push   %eax
    22ae:	50                   	push   %eax
    22af:	68 c0 4f 00 00       	push   $0x4fc0
    22b4:	6a 01                	push   $0x1
    22b6:	e8 55 17 00 00       	call   3a10 <printf>
    exit();
    22bb:	e8 f3 15 00 00       	call   38b3 <exit>
    printf(1, "subdir mkdir dd/dd failed\n");
    22c0:	53                   	push   %ebx
    22c1:	53                   	push   %ebx
    22c2:	68 c3 44 00 00       	push   $0x44c3
    22c7:	6a 01                	push   $0x1
    22c9:	e8 42 17 00 00       	call   3a10 <printf>
    exit();
    22ce:	e8 e0 15 00 00       	call   38b3 <exit>
    printf(1, "unlink dd (non-empty dir) succeeded!\n");
    22d3:	50                   	push   %eax
    22d4:	50                   	push   %eax
    22d5:	68 74 4f 00 00       	push   $0x4f74
    22da:	6a 01                	push   $0x1
    22dc:	e8 2f 17 00 00       	call   3a10 <printf>
    exit();
    22e1:	e8 cd 15 00 00       	call   38b3 <exit>
    printf(1, "create dd/ff failed\n");
    22e6:	50                   	push   %eax
    22e7:	50                   	push   %eax
    22e8:	68 a7 44 00 00       	push   $0x44a7
    22ed:	6a 01                	push   $0x1
    22ef:	e8 1c 17 00 00       	call   3a10 <printf>
    exit();
    22f4:	e8 ba 15 00 00       	call   38b3 <exit>
    printf(1, "subdir mkdir dd failed\n");
    22f9:	50                   	push   %eax
    22fa:	50                   	push   %eax
    22fb:	68 8f 44 00 00       	push   $0x448f
    2300:	6a 01                	push   $0x1
    2302:	e8 09 17 00 00       	call   3a10 <printf>
    exit();
    2307:	e8 a7 15 00 00       	call   38b3 <exit>
    printf(1, "unlink dd failed\n");
    230c:	50                   	push   %eax
    230d:	50                   	push   %eax
    230e:	68 78 47 00 00       	push   $0x4778
    2313:	6a 01                	push   $0x1
    2315:	e8 f6 16 00 00       	call   3a10 <printf>
    exit();
    231a:	e8 94 15 00 00       	call   38b3 <exit>
    printf(1, "unlink dd/dd failed\n");
    231f:	52                   	push   %edx
    2320:	52                   	push   %edx
    2321:	68 63 47 00 00       	push   $0x4763
    2326:	6a 01                	push   $0x1
    2328:	e8 e3 16 00 00       	call   3a10 <printf>
    exit();
    232d:	e8 81 15 00 00       	call   38b3 <exit>
    printf(1, "unlink non-empty dd succeeded!\n");
    2332:	51                   	push   %ecx
    2333:	51                   	push   %ecx
    2334:	68 78 50 00 00       	push   $0x5078
    2339:	6a 01                	push   $0x1
    233b:	e8 d0 16 00 00       	call   3a10 <printf>
    exit();
    2340:	e8 6e 15 00 00       	call   38b3 <exit>
    printf(1, "unlink dd/ff failed\n");
    2345:	53                   	push   %ebx
    2346:	53                   	push   %ebx
    2347:	68 4e 47 00 00       	push   $0x474e
    234c:	6a 01                	push   $0x1
    234e:	e8 bd 16 00 00       	call   3a10 <printf>
    exit();
    2353:	e8 5b 15 00 00       	call   38b3 <exit>
    printf(1, "chdir dd/xx succeeded!\n");
    2358:	50                   	push   %eax
    2359:	50                   	push   %eax
    235a:	68 36 47 00 00       	push   $0x4736
    235f:	6a 01                	push   $0x1
    2361:	e8 aa 16 00 00       	call   3a10 <printf>
    exit();
    2366:	e8 48 15 00 00       	call   38b3 <exit>
    printf(1, "chdir dd/ff succeeded!\n");
    236b:	50                   	push   %eax
    236c:	50                   	push   %eax
    236d:	68 1e 47 00 00       	push   $0x471e
    2372:	6a 01                	push   $0x1
    2374:	e8 97 16 00 00       	call   3a10 <printf>
    exit();
    2379:	e8 35 15 00 00       	call   38b3 <exit>
    printf(1, "unlink dd/ff/ff succeeded!\n");
    237e:	50                   	push   %eax
    237f:	50                   	push   %eax
    2380:	68 02 47 00 00       	push   $0x4702
    2385:	6a 01                	push   $0x1
    2387:	e8 84 16 00 00       	call   3a10 <printf>
    exit();
    238c:	e8 22 15 00 00       	call   38b3 <exit>
    printf(1, "unlink dd/xx/ff succeeded!\n");
    2391:	50                   	push   %eax
    2392:	50                   	push   %eax
    2393:	68 e6 46 00 00       	push   $0x46e6
    2398:	6a 01                	push   $0x1
    239a:	e8 71 16 00 00       	call   3a10 <printf>
    exit();
    239f:	e8 0f 15 00 00       	call   38b3 <exit>
    printf(1, "mkdir dd/dd/ffff succeeded!\n");
    23a4:	50                   	push   %eax
    23a5:	50                   	push   %eax
    23a6:	68 c9 46 00 00       	push   $0x46c9
    23ab:	6a 01                	push   $0x1
    23ad:	e8 5e 16 00 00       	call   3a10 <printf>
    exit();
    23b2:	e8 fc 14 00 00       	call   38b3 <exit>
    printf(1, "mkdir dd/xx/ff succeeded!\n");
    23b7:	52                   	push   %edx
    23b8:	52                   	push   %edx
    23b9:	68 ae 46 00 00       	push   $0x46ae
    23be:	6a 01                	push   $0x1
    23c0:	e8 4b 16 00 00       	call   3a10 <printf>
    exit();
    23c5:	e8 e9 14 00 00       	call   38b3 <exit>
    printf(1, "read dd/dd/ffff wrong len\n");
    23ca:	51                   	push   %ecx
    23cb:	51                   	push   %ecx
    23cc:	68 db 45 00 00       	push   $0x45db
    23d1:	6a 01                	push   $0x1
    23d3:	e8 38 16 00 00       	call   3a10 <printf>
    exit();
    23d8:	e8 d6 14 00 00       	call   38b3 <exit>
    printf(1, "open dd/dd/ffff failed\n");
    23dd:	53                   	push   %ebx
    23de:	53                   	push   %ebx
    23df:	68 c3 45 00 00       	push   $0x45c3
    23e4:	6a 01                	push   $0x1
    23e6:	e8 25 16 00 00       	call   3a10 <printf>
    exit();
    23eb:	e8 c3 14 00 00       	call   38b3 <exit>

000023f0 <bigwrite>:
{
    23f0:	55                   	push   %ebp
    23f1:	89 e5                	mov    %esp,%ebp
    23f3:	56                   	push   %esi
    23f4:	53                   	push   %ebx
  for(sz = 499; sz < 12*512; sz += 471){
    23f5:	bb f3 01 00 00       	mov    $0x1f3,%ebx
  printf(1, "bigwrite test\n");
    23fa:	83 ec 08             	sub    $0x8,%esp
    23fd:	68 95 47 00 00       	push   $0x4795
    2402:	6a 01                	push   $0x1
    2404:	e8 07 16 00 00       	call   3a10 <printf>
  unlink("bigwrite");
    2409:	c7 04 24 a4 47 00 00 	movl   $0x47a4,(%esp)
    2410:	e8 ee 14 00 00       	call   3903 <unlink>
    2415:	83 c4 10             	add    $0x10,%esp
    2418:	8d b4 26 00 00 00 00 	lea    0x0(%esi,%eiz,1),%esi
    241f:	90                   	nop
    fd = open("bigwrite", O_CREATE | O_RDWR);
    2420:	83 ec 08             	sub    $0x8,%esp
    2423:	68 02 02 00 00       	push   $0x202
    2428:	68 a4 47 00 00       	push   $0x47a4
    242d:	e8 c1 14 00 00       	call   38f3 <open>
    if(fd < 0){
    2432:	83 c4 10             	add    $0x10,%esp
    fd = open("bigwrite", O_CREATE | O_RDWR);
    2435:	89 c6                	mov    %eax,%esi
    if(fd < 0){
    2437:	85 c0                	test   %eax,%eax
    2439:	78 7e                	js     24b9 <bigwrite+0xc9>
      int cc = write(fd, buf, sz);
    243b:	83 ec 04             	sub    $0x4,%esp
    243e:	53                   	push   %ebx
    243f:	68 60 85 00 00       	push   $0x8560
    2444:	50                   	push   %eax
    2445:	e8 89 14 00 00       	call   38d3 <write>
      if(cc != sz){
    244a:	83 c4 10             	add    $0x10,%esp
    244d:	39 d8                	cmp    %ebx,%eax
    244f:	75 55                	jne    24a6 <bigwrite+0xb6>
      int cc = write(fd, buf, sz);
    2451:	83 ec 04             	sub    $0x4,%esp
    2454:	53                   	push   %ebx
    2455:	68 60 85 00 00       	push   $0x8560
    245a:	56                   	push   %esi
    245b:	e8 73 14 00 00       	call   38d3 <write>
      if(cc != sz){
    2460:	83 c4 10             	add    $0x10,%esp
    2463:	39 c3                	cmp    %eax,%ebx
    2465:	75 3f                	jne    24a6 <bigwrite+0xb6>
    close(fd);
    2467:	83 ec 0c             	sub    $0xc,%esp
  for(sz = 499; sz < 12*512; sz += 471){
    246a:	81 c3 d7 01 00 00    	add    $0x1d7,%ebx
    close(fd);
    2470:	56                   	push   %esi
    2471:	e8 65 14 00 00       	call   38db <close>
    unlink("bigwrite");
    2476:	c7 04 24 a4 47 00 00 	movl   $0x47a4,(%esp)
    247d:	e8 81 14 00 00       	call   3903 <unlink>
  for(sz = 499; sz < 12*512; sz += 471){
    2482:	83 c4 10             	add    $0x10,%esp
    2485:	81 fb 07 18 00 00    	cmp    $0x1807,%ebx
    248b:	75 93                	jne    2420 <bigwrite+0x30>
  printf(1, "bigwrite ok\n");
    248d:	83 ec 08             	sub    $0x8,%esp
    2490:	68 d7 47 00 00       	push   $0x47d7
    2495:	6a 01                	push   $0x1
    2497:	e8 74 15 00 00       	call   3a10 <printf>
}
    249c:	83 c4 10             	add    $0x10,%esp
    249f:	8d 65 f8             	lea    -0x8(%ebp),%esp
    24a2:	5b                   	pop    %ebx
    24a3:	5e                   	pop    %esi
    24a4:	5d                   	pop    %ebp
    24a5:	c3                   	ret
        printf(1, "write(%d) ret %d\n", sz, cc);
    24a6:	50                   	push   %eax
    24a7:	53                   	push   %ebx
    24a8:	68 c5 47 00 00       	push   $0x47c5
    24ad:	6a 01                	push   $0x1
    24af:	e8 5c 15 00 00       	call   3a10 <printf>
        exit();
    24b4:	e8 fa 13 00 00       	call   38b3 <exit>
      printf(1, "cannot create bigwrite\n");
    24b9:	83 ec 08             	sub    $0x8,%esp
    24bc:	68 ad 47 00 00       	push   $0x47ad
    24c1:	6a 01                	push   $0x1
    24c3:	e8 48 15 00 00       	call   3a10 <printf>
      exit();
    24c8:	e8 e6 13 00 00       	call   38b3 <exit>
    24cd:	8d 76 00             	lea    0x0(%esi),%esi

000024d0 <bigfile>:
{
    24d0:	55                   	push   %ebp
    24d1:	89 e5                	mov    %esp,%ebp
    24d3:	57                   	push   %edi
    24d4:	56                   	push   %esi
    24d5:	53                   	push   %ebx
    24d6:	83 ec 14             	sub    $0x14,%esp
  printf(1, "bigfile test\n");
    24d9:	68 e4 47 00 00       	push   $0x47e4
    24de:	6a 01                	push   $0x1
    24e0:	e8 2b 15 00 00       	call   3a10 <printf>
  unlink("bigfile");
    24e5:	c7 04 24 00 48 00 00 	movl   $0x4800,(%esp)
    24ec:	e8 12 14 00 00       	call   3903 <unlink>
  fd = open("bigfile", O_CREATE | O_RDWR);
    24f1:	58                   	pop    %eax
    24f2:	5a                   	pop    %edx
    24f3:	68 02 02 00 00       	push   $0x202
    24f8:	68 00 48 00 00       	push   $0x4800
    24fd:	e8 f1 13 00 00       	call   38f3 <open>
  if(fd < 0){
    2502:	83 c4 10             	add    $0x10,%esp
    2505:	85 c0                	test   %eax,%eax
    2507:	0f 88 5e 01 00 00    	js     266b <bigfile+0x19b>
    250d:	89 c6                	mov    %eax,%esi
  for(i = 0; i < 20; i++){
    250f:	31 db                	xor    %ebx,%ebx
    2511:	8d b4 26 00 00 00 00 	lea    0x0(%esi,%eiz,1),%esi
    memset(buf, i, 600);
    2518:	83 ec 04             	sub    $0x4,%esp
    251b:	68 58 02 00 00       	push   $0x258
    2520:	53                   	push   %ebx
    2521:	68 60 85 00 00       	push   $0x8560
    2526:	e8 05 12 00 00       	call   3730 <memset>
    if(write(fd, buf, 600) != 600){
    252b:	83 c4 0c             	add    $0xc,%esp
    252e:	68 58 02 00 00       	push   $0x258
    2533:	68 60 85 00 00       	push   $0x8560
    2538:	56                   	push   %esi
    2539:	e8 95 13 00 00       	call   38d3 <write>
    253e:	83 c4 10             	add    $0x10,%esp
    2541:	3d 58 02 00 00       	cmp    $0x258,%eax
    2546:	0f 85 f8 00 00 00    	jne    2644 <bigfile+0x174>
  for(i = 0; i < 20; i++){
    254c:	83 c3 01             	add    $0x1,%ebx
    254f:	83 fb 14             	cmp    $0x14,%ebx
    2552:	75 c4                	jne    2518 <bigfile+0x48>
  close(fd);
    2554:	83 ec 0c             	sub    $0xc,%esp
    2557:	56                   	push   %esi
    2558:	e8 7e 13 00 00       	call   38db <close>
  fd = open("bigfile", 0);
    255d:	5e                   	pop    %esi
    255e:	5f                   	pop    %edi
    255f:	6a 00                	push   $0x0
    2561:	68 00 48 00 00       	push   $0x4800
    2566:	e8 88 13 00 00       	call   38f3 <open>
  if(fd < 0){
    256b:	83 c4 10             	add    $0x10,%esp
  fd = open("bigfile", 0);
    256e:	89 c6                	mov    %eax,%esi
  if(fd < 0){
    2570:	85 c0                	test   %eax,%eax
    2572:	0f 88 e0 00 00 00    	js     2658 <bigfile+0x188>
  total = 0;
    2578:	31 db                	xor    %ebx,%ebx
  for(i = 0; ; i++){
    257a:	31 ff                	xor    %edi,%edi
    257c:	eb 30                	jmp    25ae <bigfile+0xde>
    257e:	66 90                	xchg   %ax,%ax
    if(cc != 300){
    2580:	3d 2c 01 00 00       	cmp    $0x12c,%eax
    2585:	0f 85 91 00 00 00    	jne    261c <bigfile+0x14c>
    if(buf[0] != i/2 || buf[299] != i/2){
    258b:	89 fa                	mov    %edi,%edx
    258d:	0f be 05 60 85 00 00 	movsbl 0x8560,%eax
    2594:	d1 fa                	sar    %edx
    2596:	39 d0                	cmp    %edx,%eax
    2598:	75 6e                	jne    2608 <bigfile+0x138>
    259a:	0f be 15 8b 86 00 00 	movsbl 0x868b,%edx
    25a1:	39 d0                	cmp    %edx,%eax
    25a3:	75 63                	jne    2608 <bigfile+0x138>
    total += cc;
    25a5:	81 c3 2c 01 00 00    	add    $0x12c,%ebx
  for(i = 0; ; i++){
    25ab:	83 c7 01             	add    $0x1,%edi
    cc = read(fd, buf, 300);
    25ae:	83 ec 04             	sub    $0x4,%esp
    25b1:	68 2c 01 00 00       	push   $0x12c
    25b6:	68 60 85 00 00       	push   $0x8560
    25bb:	56                   	push   %esi
    25bc:	e8 0a 13 00 00       	call   38cb <read>
    if(cc < 0){
    25c1:	83 c4 10             	add    $0x10,%esp
    25c4:	85 c0                	test   %eax,%eax
    25c6:	78 68                	js     2630 <bigfile+0x160>
    if(cc == 0)
    25c8:	75 b6                	jne    2580 <bigfile+0xb0>
  close(fd);
    25ca:	83 ec 0c             	sub    $0xc,%esp
    25cd:	56                   	push   %esi
    25ce:	e8 08 13 00 00       	call   38db <close>
  if(total != 20*600){
    25d3:	83 c4 10             	add    $0x10,%esp
    25d6:	81 fb e0 2e 00 00    	cmp    $0x2ee0,%ebx
    25dc:	0f 85 9c 00 00 00    	jne    267e <bigfile+0x1ae>
  unlink("bigfile");
    25e2:	83 ec 0c             	sub    $0xc,%esp
    25e5:	68 00 48 00 00       	push   $0x4800
    25ea:	e8 14 13 00 00       	call   3903 <unlink>
  printf(1, "bigfile test ok\n");
    25ef:	58                   	pop    %eax
    25f0:	5a                   	pop    %edx
    25f1:	68 8f 48 00 00       	push   $0x488f
    25f6:	6a 01                	push   $0x1
    25f8:	e8 13 14 00 00       	call   3a10 <printf>
}
    25fd:	83 c4 10             	add    $0x10,%esp
    2600:	8d 65 f4             	lea    -0xc(%ebp),%esp
    2603:	5b                   	pop    %ebx
    2604:	5e                   	pop    %esi
    2605:	5f                   	pop    %edi
    2606:	5d                   	pop    %ebp
    2607:	c3                   	ret
      printf(1, "read bigfile wrong data\n");
    2608:	83 ec 08             	sub    $0x8,%esp
    260b:	68 5c 48 00 00       	push   $0x485c
    2610:	6a 01                	push   $0x1
    2612:	e8 f9 13 00 00       	call   3a10 <printf>
      exit();
    2617:	e8 97 12 00 00       	call   38b3 <exit>
      printf(1, "short read bigfile\n");
    261c:	83 ec 08             	sub    $0x8,%esp
    261f:	68 48 48 00 00       	push   $0x4848
    2624:	6a 01                	push   $0x1
    2626:	e8 e5 13 00 00       	call   3a10 <printf>
      exit();
    262b:	e8 83 12 00 00       	call   38b3 <exit>
      printf(1, "read bigfile failed\n");
    2630:	83 ec 08             	sub    $0x8,%esp
    2633:	68 33 48 00 00       	push   $0x4833
    2638:	6a 01                	push   $0x1
    263a:	e8 d1 13 00 00       	call   3a10 <printf>
      exit();
    263f:	e8 6f 12 00 00       	call   38b3 <exit>
      printf(1, "write bigfile failed\n");
    2644:	83 ec 08             	sub    $0x8,%esp
    2647:	68 08 48 00 00       	push   $0x4808
    264c:	6a 01                	push   $0x1
    264e:	e8 bd 13 00 00       	call   3a10 <printf>
      exit();
    2653:	e8 5b 12 00 00       	call   38b3 <exit>
    printf(1, "cannot open bigfile\n");
    2658:	53                   	push   %ebx
    2659:	53                   	push   %ebx
    265a:	68 1e 48 00 00       	push   $0x481e
    265f:	6a 01                	push   $0x1
    2661:	e8 aa 13 00 00       	call   3a10 <printf>
    exit();
    2666:	e8 48 12 00 00       	call   38b3 <exit>
    printf(1, "cannot create bigfile");
    266b:	50                   	push   %eax
    266c:	50                   	push   %eax
    266d:	68 f2 47 00 00       	push   $0x47f2
    2672:	6a 01                	push   $0x1
    2674:	e8 97 13 00 00       	call   3a10 <printf>
    exit();
    2679:	e8 35 12 00 00       	call   38b3 <exit>
    printf(1, "read bigfile wrong total\n");
    267e:	51                   	push   %ecx
    267f:	51                   	push   %ecx
    2680:	68 75 48 00 00       	push   $0x4875
    2685:	6a 01                	push   $0x1
    2687:	e8 84 13 00 00       	call   3a10 <printf>
    exit();
    268c:	e8 22 12 00 00       	call   38b3 <exit>
    2691:	8d b4 26 00 00 00 00 	lea    0x0(%esi,%eiz,1),%esi
    2698:	8d b4 26 00 00 00 00 	lea    0x0(%esi,%eiz,1),%esi
    269f:	90                   	nop

000026a0 <fourteen>:
{
    26a0:	55                   	push   %ebp
    26a1:	89 e5                	mov    %esp,%ebp
    26a3:	83 ec 10             	sub    $0x10,%esp
  printf(1, "fourteen test\n");
    26a6:	68 a0 48 00 00       	push   $0x48a0
    26ab:	6a 01                	push   $0x1
    26ad:	e8 5e 13 00 00       	call   3a10 <printf>
  if(mkdir("12345678901234") != 0){
    26b2:	c7 04 24 db 48 00 00 	movl   $0x48db,(%esp)
    26b9:	e8 5d 12 00 00       	call   391b <mkdir>
    26be:	83 c4 10             	add    $0x10,%esp
    26c1:	85 c0                	test   %eax,%eax
    26c3:	0f 85 97 00 00 00    	jne    2760 <fourteen+0xc0>
  if(mkdir("12345678901234/123456789012345") != 0){
    26c9:	83 ec 0c             	sub    $0xc,%esp
    26cc:	68 98 50 00 00       	push   $0x5098
    26d1:	e8 45 12 00 00       	call   391b <mkdir>
    26d6:	83 c4 10             	add    $0x10,%esp
    26d9:	85 c0                	test   %eax,%eax
    26db:	0f 85 de 00 00 00    	jne    27bf <fourteen+0x11f>
  fd = open("123456789012345/123456789012345/123456789012345", O_CREATE);
    26e1:	83 ec 08             	sub    $0x8,%esp
    26e4:	68 00 02 00 00       	push   $0x200
    26e9:	68 e8 50 00 00       	push   $0x50e8
    26ee:	e8 00 12 00 00       	call   38f3 <open>
  if(fd < 0){
    26f3:	83 c4 10             	add    $0x10,%esp
    26f6:	85 c0                	test   %eax,%eax
    26f8:	0f 88 ae 00 00 00    	js     27ac <fourteen+0x10c>
  close(fd);
    26fe:	83 ec 0c             	sub    $0xc,%esp
    2701:	50                   	push   %eax
    2702:	e8 d4 11 00 00       	call   38db <close>
  fd = open("12345678901234/12345678901234/12345678901234", 0);
    2707:	58                   	pop    %eax
    2708:	5a                   	pop    %edx
    2709:	6a 00                	push   $0x0
    270b:	68 58 51 00 00       	push   $0x5158
    2710:	e8 de 11 00 00       	call   38f3 <open>
  if(fd < 0){
    2715:	83 c4 10             	add    $0x10,%esp
    2718:	85 c0                	test   %eax,%eax
    271a:	78 7d                	js     2799 <fourteen+0xf9>
  close(fd);
    271c:	83 ec 0c             	sub    $0xc,%esp
    271f:	50                   	push   %eax
    2720:	e8 b6 11 00 00       	call   38db <close>
  if(mkdir("12345678901234/12345678901234") == 0){
    2725:	c7 04 24 cc 48 00 00 	movl   $0x48cc,(%esp)
    272c:	e8 ea 11 00 00       	call   391b <mkdir>
    2731:	83 c4 10             	add    $0x10,%esp
    2734:	85 c0                	test   %eax,%eax
    2736:	74 4e                	je     2786 <fourteen+0xe6>
  if(mkdir("123456789012345/12345678901234") == 0){
    2738:	83 ec 0c             	sub    $0xc,%esp
    273b:	68 f4 51 00 00       	push   $0x51f4
    2740:	e8 d6 11 00 00       	call   391b <mkdir>
    2745:	83 c4 10             	add    $0x10,%esp
    2748:	85 c0                	test   %eax,%eax
    274a:	74 27                	je     2773 <fourteen+0xd3>
  printf(1, "fourteen ok\n");
    274c:	83 ec 08             	sub    $0x8,%esp
    274f:	68 ea 48 00 00       	push   $0x48ea
    2754:	6a 01                	push   $0x1
    2756:	e8 b5 12 00 00       	call   3a10 <printf>
}
    275b:	83 c4 10             	add    $0x10,%esp
    275e:	c9                   	leave
    275f:	c3                   	ret
    printf(1, "mkdir 12345678901234 failed\n");
    2760:	50                   	push   %eax
    2761:	50                   	push   %eax
    2762:	68 af 48 00 00       	push   $0x48af
    2767:	6a 01                	push   $0x1
    2769:	e8 a2 12 00 00       	call   3a10 <printf>
    exit();
    276e:	e8 40 11 00 00       	call   38b3 <exit>
    printf(1, "mkdir 12345678901234/123456789012345 succeeded!\n");
    2773:	50                   	push   %eax
    2774:	50                   	push   %eax
    2775:	68 14 52 00 00       	push   $0x5214
    277a:	6a 01                	push   $0x1
    277c:	e8 8f 12 00 00       	call   3a10 <printf>
    exit();
    2781:	e8 2d 11 00 00       	call   38b3 <exit>
    printf(1, "mkdir 12345678901234/12345678901234 succeeded!\n");
    2786:	52                   	push   %edx
    2787:	52                   	push   %edx
    2788:	68 c4 51 00 00       	push   $0x51c4
    278d:	6a 01                	push   $0x1
    278f:	e8 7c 12 00 00       	call   3a10 <printf>
    exit();
    2794:	e8 1a 11 00 00       	call   38b3 <exit>
    printf(1, "open 12345678901234/12345678901234/12345678901234 failed\n");
    2799:	51                   	push   %ecx
    279a:	51                   	push   %ecx
    279b:	68 88 51 00 00       	push   $0x5188
    27a0:	6a 01                	push   $0x1
    27a2:	e8 69 12 00 00       	call   3a10 <printf>
    exit();
    27a7:	e8 07 11 00 00       	call   38b3 <exit>
    printf(1, "create 123456789012345/123456789012345/123456789012345 failed\n");
    27ac:	51                   	push   %ecx
    27ad:	51                   	push   %ecx
    27ae:	68 18 51 00 00       	push   $0x5118
    27b3:	6a 01                	push   $0x1
    27b5:	e8 56 12 00 00       	call   3a10 <printf>
    exit();
    27ba:	e8 f4 10 00 00       	call   38b3 <exit>
    printf(1, "mkdir 12345678901234/123456789012345 failed\n");
    27bf:	50                   	push   %eax
    27c0:	50                   	push   %eax
    27c1:	68 b8 50 00 00       	push   $0x50b8
    27c6:	6a 01                	push   $0x1
    27c8:	e8 43 12 00 00       	call   3a10 <printf>
    exit();
    27cd:	e8 e1 10 00 00       	call   38b3 <exit>
    27d2:	8d b4 26 00 00 00 00 	lea    0x0(%esi,%eiz,1),%esi
    27d9:	8d b4 26 00 00 00 00 	lea    0x0(%esi,%eiz,1),%esi

000027e0 <rmdot>:
{
    27e0:	55                   	push   %ebp
    27e1:	89 e5                	mov    %esp,%ebp
    27e3:	83 ec 10             	sub    $0x10,%esp
  printf(1, "rmdot test\n");
    27e6:	68 f7 48 00 00       	push   $0x48f7
    27eb:	6a 01                	push   $0x1
    27ed:	e8 1e 12 00 00       	call   3a10 <printf>
  if(mkdir("dots") != 0){
    27f2:	c7 04 24 03 49 00 00 	movl   $0x4903,(%esp)
    27f9:	e8 1d 11 00 00       	call   391b <mkdir>
    27fe:	83 c4 10             	add    $0x10,%esp
    2801:	85 c0                	test   %eax,%eax
    2803:	0f 85 b0 00 00 00    	jne    28b9 <rmdot+0xd9>
  if(chdir("dots") != 0){
    2809:	83 ec 0c             	sub    $0xc,%esp
    280c:	68 03 49 00 00       	push   $0x4903
    2811:	e8 0d 11 00 00       	call   3923 <chdir>
    2816:	83 c4 10             	add    $0x10,%esp
    2819:	85 c0                	test   %eax,%eax
    281b:	0f 85 1d 01 00 00    	jne    293e <rmdot+0x15e>
  if(unlink(".") == 0){
    2821:	83 ec 0c             	sub    $0xc,%esp
    2824:	68 ae 45 00 00       	push   $0x45ae
    2829:	e8 d5 10 00 00       	call   3903 <unlink>
    282e:	83 c4 10             	add    $0x10,%esp
    2831:	85 c0                	test   %eax,%eax
    2833:	0f 84 f2 00 00 00    	je     292b <rmdot+0x14b>
  if(unlink("..") == 0){
    2839:	83 ec 0c             	sub    $0xc,%esp
    283c:	68 ad 45 00 00       	push   $0x45ad
    2841:	e8 bd 10 00 00       	call   3903 <unlink>
    2846:	83 c4 10             	add    $0x10,%esp
    2849:	85 c0                	test   %eax,%eax
    284b:	0f 84 c7 00 00 00    	je     2918 <rmdot+0x138>
  if(chdir("/") != 0){
    2851:	83 ec 0c             	sub    $0xc,%esp
    2854:	68 81 3d 00 00       	push   $0x3d81
    2859:	e8 c5 10 00 00       	call   3923 <chdir>
    285e:	83 c4 10             	add    $0x10,%esp
    2861:	85 c0                	test   %eax,%eax
    2863:	0f 85 9c 00 00 00    	jne    2905 <rmdot+0x125>
  if(unlink("dots/.") == 0){
    2869:	83 ec 0c             	sub    $0xc,%esp
    286c:	68 4b 49 00 00       	push   $0x494b
    2871:	e8 8d 10 00 00       	call   3903 <unlink>
    2876:	83 c4 10             	add    $0x10,%esp
    2879:	85 c0                	test   %eax,%eax
    287b:	74 75                	je     28f2 <rmdot+0x112>
  if(unlink("dots/..") == 0){
    287d:	83 ec 0c             	sub    $0xc,%esp
    2880:	68 69 49 00 00       	push   $0x4969
    2885:	e8 79 10 00 00       	call   3903 <unlink>
    288a:	83 c4 10             	add    $0x10,%esp
    288d:	85 c0                	test   %eax,%eax
    288f:	74 4e                	je     28df <rmdot+0xff>
  if(unlink("dots") != 0){
    2891:	83 ec 0c             	sub    $0xc,%esp
    2894:	68 03 49 00 00       	push   $0x4903
    2899:	e8 65 10 00 00       	call   3903 <unlink>
    289e:	83 c4 10             	add    $0x10,%esp
    28a1:	85 c0                	test   %eax,%eax
    28a3:	75 27                	jne    28cc <rmdot+0xec>
  printf(1, "rmdot ok\n");
    28a5:	83 ec 08             	sub    $0x8,%esp
    28a8:	68 9e 49 00 00       	push   $0x499e
    28ad:	6a 01                	push   $0x1
    28af:	e8 5c 11 00 00       	call   3a10 <printf>
}
    28b4:	83 c4 10             	add    $0x10,%esp
    28b7:	c9                   	leave
    28b8:	c3                   	ret
    printf(1, "mkdir dots failed\n");
    28b9:	50                   	push   %eax
    28ba:	50                   	push   %eax
    28bb:	68 08 49 00 00       	push   $0x4908
    28c0:	6a 01                	push   $0x1
    28c2:	e8 49 11 00 00       	call   3a10 <printf>
    exit();
    28c7:	e8 e7 0f 00 00       	call   38b3 <exit>
    printf(1, "unlink dots failed!\n");
    28cc:	50                   	push   %eax
    28cd:	50                   	push   %eax
    28ce:	68 89 49 00 00       	push   $0x4989
    28d3:	6a 01                	push   $0x1
    28d5:	e8 36 11 00 00       	call   3a10 <printf>
    exit();
    28da:	e8 d4 0f 00 00       	call   38b3 <exit>
    printf(1, "unlink dots/.. worked!\n");
    28df:	52                   	push   %edx
    28e0:	52                   	push   %edx
    28e1:	68 71 49 00 00       	push   $0x4971
    28e6:	6a 01                	push   $0x1
    28e8:	e8 23 11 00 00       	call   3a10 <printf>
    exit();
    28ed:	e8 c1 0f 00 00       	call   38b3 <exit>
    printf(1, "unlink dots/. worked!\n");
    28f2:	51                   	push   %ecx
    28f3:	51                   	push   %ecx
    28f4:	68 52 49 00 00       	push   $0x4952
    28f9:	6a 01                	push   $0x1
    28fb:	e8 10 11 00 00       	call   3a10 <printf>
    exit();
    2900:	e8 ae 0f 00 00       	call   38b3 <exit>
    printf(1, "chdir / failed\n");
    2905:	50                   	push   %eax
    2906:	50                   	push   %eax
    2907:	68 83 3d 00 00       	push   $0x3d83
    290c:	6a 01                	push   $0x1
    290e:	e8 fd 10 00 00       	call   3a10 <printf>
    exit();
    2913:	e8 9b 0f 00 00       	call   38b3 <exit>
    printf(1, "rm .. worked!\n");
    2918:	50                   	push   %eax
    2919:	50                   	push   %eax
    291a:	68 3c 49 00 00       	push   $0x493c
    291f:	6a 01                	push   $0x1
    2921:	e8 ea 10 00 00       	call   3a10 <printf>
    exit();
    2926:	e8 88 0f 00 00       	call   38b3 <exit>
    printf(1, "rm . worked!\n");
    292b:	50                   	push   %eax
    292c:	50                   	push   %eax
    292d:	68 2e 49 00 00       	push   $0x492e
    2932:	6a 01                	push   $0x1
    2934:	e8 d7 10 00 00       	call   3a10 <printf>
    exit();
    2939:	e8 75 0f 00 00       	call   38b3 <exit>
    printf(1, "chdir dots failed\n");
    293e:	50                   	push   %eax
    293f:	50                   	push   %eax
    2940:	68 1b 49 00 00       	push   $0x491b
    2945:	6a 01                	push   $0x1
    2947:	e8 c4 10 00 00       	call   3a10 <printf>
    exit();
    294c:	e8 62 0f 00 00       	call   38b3 <exit>
    2951:	8d b4 26 00 00 00 00 	lea    0x0(%esi,%eiz,1),%esi
    2958:	8d b4 26 00 00 00 00 	lea    0x0(%esi,%eiz,1),%esi
    295f:	90                   	nop

00002960 <dirfile>:
{
    2960:	55                   	push   %ebp
    2961:	89 e5                	mov    %esp,%ebp
    2963:	53                   	push   %ebx
    2964:	83 ec 0c             	sub    $0xc,%esp
  printf(1, "dir vs file\n");
    2967:	68 a8 49 00 00       	push   $0x49a8
    296c:	6a 01                	push   $0x1
    296e:	e8 9d 10 00 00       	call   3a10 <printf>
  fd = open("dirfile", O_CREATE);
    2973:	5b                   	pop    %ebx
    2974:	58                   	pop    %eax
    2975:	68 00 02 00 00       	push   $0x200
    297a:	68 b5 49 00 00       	push   $0x49b5
    297f:	e8 6f 0f 00 00       	call   38f3 <open>
  if(fd < 0){
    2984:	83 c4 10             	add    $0x10,%esp
    2987:	85 c0                	test   %eax,%eax
    2989:	0f 88 43 01 00 00    	js     2ad2 <dirfile+0x172>
  close(fd);
    298f:	83 ec 0c             	sub    $0xc,%esp
    2992:	50                   	push   %eax
    2993:	e8 43 0f 00 00       	call   38db <close>
  if(chdir("dirfile") == 0){
    2998:	c7 04 24 b5 49 00 00 	movl   $0x49b5,(%esp)
    299f:	e8 7f 0f 00 00       	call   3923 <chdir>
    29a4:	83 c4 10             	add    $0x10,%esp
    29a7:	85 c0                	test   %eax,%eax
    29a9:	0f 84 10 01 00 00    	je     2abf <dirfile+0x15f>
  fd = open("dirfile/xx", 0);
    29af:	83 ec 08             	sub    $0x8,%esp
    29b2:	6a 00                	push   $0x0
    29b4:	68 ee 49 00 00       	push   $0x49ee
    29b9:	e8 35 0f 00 00       	call   38f3 <open>
  if(fd >= 0){
    29be:	83 c4 10             	add    $0x10,%esp
    29c1:	85 c0                	test   %eax,%eax
    29c3:	0f 89 e3 00 00 00    	jns    2aac <dirfile+0x14c>
  fd = open("dirfile/xx", O_CREATE);
    29c9:	83 ec 08             	sub    $0x8,%esp
    29cc:	68 00 02 00 00       	push   $0x200
    29d1:	68 ee 49 00 00       	push   $0x49ee
    29d6:	e8 18 0f 00 00       	call   38f3 <open>
  if(fd >= 0){
    29db:	83 c4 10             	add    $0x10,%esp
    29de:	85 c0                	test   %eax,%eax
    29e0:	0f 89 c6 00 00 00    	jns    2aac <dirfile+0x14c>
  if(mkdir("dirfile/xx") == 0){
    29e6:	83 ec 0c             	sub    $0xc,%esp
    29e9:	68 ee 49 00 00       	push   $0x49ee
    29ee:	e8 28 0f 00 00       	call   391b <mkdir>
    29f3:	83 c4 10             	add    $0x10,%esp
    29f6:	85 c0                	test   %eax,%eax
    29f8:	0f 84 46 01 00 00    	je     2b44 <dirfile+0x1e4>
  if(unlink("dirfile/xx") == 0){
    29fe:	83 ec 0c             	sub    $0xc,%esp
    2a01:	68 ee 49 00 00       	push   $0x49ee
    2a06:	e8 f8 0e 00 00       	call   3903 <unlink>
    2a0b:	83 c4 10             	add    $0x10,%esp
    2a0e:	85 c0                	test   %eax,%eax
    2a10:	0f 84 1b 01 00 00    	je     2b31 <dirfile+0x1d1>
  if(link("README", "dirfile/xx") == 0){
    2a16:	83 ec 08             	sub    $0x8,%esp
    2a19:	68 ee 49 00 00       	push   $0x49ee
    2a1e:	68 52 4a 00 00       	push   $0x4a52
    2a23:	e8 eb 0e 00 00       	call   3913 <link>
    2a28:	83 c4 10             	add    $0x10,%esp
    2a2b:	85 c0                	test   %eax,%eax
    2a2d:	0f 84 eb 00 00 00    	je     2b1e <dirfile+0x1be>
  if(unlink("dirfile") != 0){
    2a33:	83 ec 0c             	sub    $0xc,%esp
    2a36:	68 b5 49 00 00       	push   $0x49b5
    2a3b:	e8 c3 0e 00 00       	call   3903 <unlink>
    2a40:	83 c4 10             	add    $0x10,%esp
    2a43:	85 c0                	test   %eax,%eax
    2a45:	0f 85 c0 00 00 00    	jne    2b0b <dirfile+0x1ab>
  fd = open(".", O_RDWR);
    2a4b:	83 ec 08             	sub    $0x8,%esp
    2a4e:	6a 02                	push   $0x2
    2a50:	68 ae 45 00 00       	push   $0x45ae
    2a55:	e8 99 0e 00 00       	call   38f3 <open>
  if(fd >= 0){
    2a5a:	83 c4 10             	add    $0x10,%esp
    2a5d:	85 c0                	test   %eax,%eax
    2a5f:	0f 89 93 00 00 00    	jns    2af8 <dirfile+0x198>
  fd = open(".", 0);
    2a65:	83 ec 08             	sub    $0x8,%esp
    2a68:	6a 00                	push   $0x0
    2a6a:	68 ae 45 00 00       	push   $0x45ae
    2a6f:	e8 7f 0e 00 00       	call   38f3 <open>
  if(write(fd, "x", 1) > 0){
    2a74:	83 c4 0c             	add    $0xc,%esp
    2a77:	6a 01                	push   $0x1
  fd = open(".", 0);
    2a79:	89 c3                	mov    %eax,%ebx
  if(write(fd, "x", 1) > 0){
    2a7b:	68 91 46 00 00       	push   $0x4691
    2a80:	50                   	push   %eax
    2a81:	e8 4d 0e 00 00       	call   38d3 <write>
    2a86:	83 c4 10             	add    $0x10,%esp
    2a89:	85 c0                	test   %eax,%eax
    2a8b:	7f 58                	jg     2ae5 <dirfile+0x185>
  close(fd);
    2a8d:	83 ec 0c             	sub    $0xc,%esp
    2a90:	53                   	push   %ebx
    2a91:	e8 45 0e 00 00       	call   38db <close>
  printf(1, "dir vs file OK\n");
    2a96:	58                   	pop    %eax
    2a97:	5a                   	pop    %edx
    2a98:	68 85 4a 00 00       	push   $0x4a85
    2a9d:	6a 01                	push   $0x1
    2a9f:	e8 6c 0f 00 00       	call   3a10 <printf>
}
    2aa4:	8b 5d fc             	mov    -0x4(%ebp),%ebx
    2aa7:	83 c4 10             	add    $0x10,%esp
    2aaa:	c9                   	leave
    2aab:	c3                   	ret
    printf(1, "create dirfile/xx succeeded!\n");
    2aac:	50                   	push   %eax
    2aad:	50                   	push   %eax
    2aae:	68 f9 49 00 00       	push   $0x49f9
    2ab3:	6a 01                	push   $0x1
    2ab5:	e8 56 0f 00 00       	call   3a10 <printf>
    exit();
    2aba:	e8 f4 0d 00 00       	call   38b3 <exit>
    printf(1, "chdir dirfile succeeded!\n");
    2abf:	52                   	push   %edx
    2ac0:	52                   	push   %edx
    2ac1:	68 d4 49 00 00       	push   $0x49d4
    2ac6:	6a 01                	push   $0x1
    2ac8:	e8 43 0f 00 00       	call   3a10 <printf>
    exit();
    2acd:	e8 e1 0d 00 00       	call   38b3 <exit>
    printf(1, "create dirfile failed\n");
    2ad2:	51                   	push   %ecx
    2ad3:	51                   	push   %ecx
    2ad4:	68 bd 49 00 00       	push   $0x49bd
    2ad9:	6a 01                	push   $0x1
    2adb:	e8 30 0f 00 00       	call   3a10 <printf>
    exit();
    2ae0:	e8 ce 0d 00 00       	call   38b3 <exit>
    printf(1, "write . succeeded!\n");
    2ae5:	51                   	push   %ecx
    2ae6:	51                   	push   %ecx
    2ae7:	68 71 4a 00 00       	push   $0x4a71
    2aec:	6a 01                	push   $0x1
    2aee:	e8 1d 0f 00 00       	call   3a10 <printf>
    exit();
    2af3:	e8 bb 0d 00 00       	call   38b3 <exit>
    printf(1, "open . for writing succeeded!\n");
    2af8:	53                   	push   %ebx
    2af9:	53                   	push   %ebx
    2afa:	68 68 52 00 00       	push   $0x5268
    2aff:	6a 01                	push   $0x1
    2b01:	e8 0a 0f 00 00       	call   3a10 <printf>
    exit();
    2b06:	e8 a8 0d 00 00       	call   38b3 <exit>
    printf(1, "unlink dirfile failed!\n");
    2b0b:	50                   	push   %eax
    2b0c:	50                   	push   %eax
    2b0d:	68 59 4a 00 00       	push   $0x4a59
    2b12:	6a 01                	push   $0x1
    2b14:	e8 f7 0e 00 00       	call   3a10 <printf>
    exit();
    2b19:	e8 95 0d 00 00       	call   38b3 <exit>
    printf(1, "link to dirfile/xx succeeded!\n");
    2b1e:	50                   	push   %eax
    2b1f:	50                   	push   %eax
    2b20:	68 48 52 00 00       	push   $0x5248
    2b25:	6a 01                	push   $0x1
    2b27:	e8 e4 0e 00 00       	call   3a10 <printf>
    exit();
    2b2c:	e8 82 0d 00 00       	call   38b3 <exit>
    printf(1, "unlink dirfile/xx succeeded!\n");
    2b31:	50                   	push   %eax
    2b32:	50                   	push   %eax
    2b33:	68 34 4a 00 00       	push   $0x4a34
    2b38:	6a 01                	push   $0x1
    2b3a:	e8 d1 0e 00 00       	call   3a10 <printf>
    exit();
    2b3f:	e8 6f 0d 00 00       	call   38b3 <exit>
    printf(1, "mkdir dirfile/xx succeeded!\n");
    2b44:	50                   	push   %eax
    2b45:	50                   	push   %eax
    2b46:	68 17 4a 00 00       	push   $0x4a17
    2b4b:	6a 01                	push   $0x1
    2b4d:	e8 be 0e 00 00       	call   3a10 <printf>
    exit();
    2b52:	e8 5c 0d 00 00       	call   38b3 <exit>
    2b57:	8d b4 26 00 00 00 00 	lea    0x0(%esi,%eiz,1),%esi
    2b5e:	66 90                	xchg   %ax,%ax

00002b60 <iref>:
{
    2b60:	55                   	push   %ebp
    2b61:	89 e5                	mov    %esp,%ebp
    2b63:	53                   	push   %ebx
  printf(1, "empty file name\n");
    2b64:	bb 33 00 00 00       	mov    $0x33,%ebx
{
    2b69:	83 ec 0c             	sub    $0xc,%esp
  printf(1, "empty file name\n");
    2b6c:	68 95 4a 00 00       	push   $0x4a95
    2b71:	6a 01                	push   $0x1
    2b73:	e8 98 0e 00 00       	call   3a10 <printf>
    2b78:	83 c4 10             	add    $0x10,%esp
    2b7b:	8d 74 26 00          	lea    0x0(%esi,%eiz,1),%esi
    2b7f:	90                   	nop
    if(mkdir("irefd") != 0){
    2b80:	83 ec 0c             	sub    $0xc,%esp
    2b83:	68 a6 4a 00 00       	push   $0x4aa6
    2b88:	e8 8e 0d 00 00       	call   391b <mkdir>
    2b8d:	83 c4 10             	add    $0x10,%esp
    2b90:	85 c0                	test   %eax,%eax
    2b92:	0f 85 bb 00 00 00    	jne    2c53 <iref+0xf3>
    if(chdir("irefd") != 0){
    2b98:	83 ec 0c             	sub    $0xc,%esp
    2b9b:	68 a6 4a 00 00       	push   $0x4aa6
    2ba0:	e8 7e 0d 00 00       	call   3923 <chdir>
    2ba5:	83 c4 10             	add    $0x10,%esp
    2ba8:	85 c0                	test   %eax,%eax
    2baa:	0f 85 b7 00 00 00    	jne    2c67 <iref+0x107>
    mkdir("");
    2bb0:	83 ec 0c             	sub    $0xc,%esp
    2bb3:	68 5b 41 00 00       	push   $0x415b
    2bb8:	e8 5e 0d 00 00       	call   391b <mkdir>
    link("README", "");
    2bbd:	59                   	pop    %ecx
    2bbe:	58                   	pop    %eax
    2bbf:	68 5b 41 00 00       	push   $0x415b
    2bc4:	68 52 4a 00 00       	push   $0x4a52
    2bc9:	e8 45 0d 00 00       	call   3913 <link>
    fd = open("", O_CREATE);
    2bce:	58                   	pop    %eax
    2bcf:	5a                   	pop    %edx
    2bd0:	68 00 02 00 00       	push   $0x200
    2bd5:	68 5b 41 00 00       	push   $0x415b
    2bda:	e8 14 0d 00 00       	call   38f3 <open>
    if(fd >= 0)
    2bdf:	83 c4 10             	add    $0x10,%esp
    2be2:	85 c0                	test   %eax,%eax
    2be4:	78 0c                	js     2bf2 <iref+0x92>
      close(fd);
    2be6:	83 ec 0c             	sub    $0xc,%esp
    2be9:	50                   	push   %eax
    2bea:	e8 ec 0c 00 00       	call   38db <close>
    2bef:	83 c4 10             	add    $0x10,%esp
    fd = open("xx", O_CREATE);
    2bf2:	83 ec 08             	sub    $0x8,%esp
    2bf5:	68 00 02 00 00       	push   $0x200
    2bfa:	68 90 46 00 00       	push   $0x4690
    2bff:	e8 ef 0c 00 00       	call   38f3 <open>
    if(fd >= 0)
    2c04:	83 c4 10             	add    $0x10,%esp
    2c07:	85 c0                	test   %eax,%eax
    2c09:	78 0c                	js     2c17 <iref+0xb7>
      close(fd);
    2c0b:	83 ec 0c             	sub    $0xc,%esp
    2c0e:	50                   	push   %eax
    2c0f:	e8 c7 0c 00 00       	call   38db <close>
    2c14:	83 c4 10             	add    $0x10,%esp
    unlink("xx");
    2c17:	83 ec 0c             	sub    $0xc,%esp
    2c1a:	68 90 46 00 00       	push   $0x4690
    2c1f:	e8 df 0c 00 00       	call   3903 <unlink>
  for(i = 0; i < 50 + 1; i++){
    2c24:	83 c4 10             	add    $0x10,%esp
    2c27:	83 eb 01             	sub    $0x1,%ebx
    2c2a:	0f 85 50 ff ff ff    	jne    2b80 <iref+0x20>
  chdir("/");
    2c30:	83 ec 0c             	sub    $0xc,%esp
    2c33:	68 81 3d 00 00       	push   $0x3d81
    2c38:	e8 e6 0c 00 00       	call   3923 <chdir>
  printf(1, "empty file name OK\n");
    2c3d:	58                   	pop    %eax
    2c3e:	5a                   	pop    %edx
    2c3f:	68 d4 4a 00 00       	push   $0x4ad4
    2c44:	6a 01                	push   $0x1
    2c46:	e8 c5 0d 00 00       	call   3a10 <printf>
}
    2c4b:	8b 5d fc             	mov    -0x4(%ebp),%ebx
    2c4e:	83 c4 10             	add    $0x10,%esp
    2c51:	c9                   	leave
    2c52:	c3                   	ret
      printf(1, "mkdir irefd failed\n");
    2c53:	83 ec 08             	sub    $0x8,%esp
    2c56:	68 ac 4a 00 00       	push   $0x4aac
    2c5b:	6a 01                	push   $0x1
    2c5d:	e8 ae 0d 00 00       	call   3a10 <printf>
      exit();
    2c62:	e8 4c 0c 00 00       	call   38b3 <exit>
      printf(1, "chdir irefd failed\n");
    2c67:	83 ec 08             	sub    $0x8,%esp
    2c6a:	68 c0 4a 00 00       	push   $0x4ac0
    2c6f:	6a 01                	push   $0x1
    2c71:	e8 9a 0d 00 00       	call   3a10 <printf>
      exit();
    2c76:	e8 38 0c 00 00       	call   38b3 <exit>
    2c7b:	8d 74 26 00          	lea    0x0(%esi,%eiz,1),%esi
    2c7f:	90                   	nop

00002c80 <forktest>:
{
    2c80:	55                   	push   %ebp
    2c81:	89 e5                	mov    %esp,%ebp
    2c83:	53                   	push   %ebx
  for(n=0; n<1000; n++){
    2c84:	31 db                	xor    %ebx,%ebx
{
    2c86:	83 ec 0c             	sub    $0xc,%esp
  printf(1, "fork test\n");
    2c89:	68 e8 4a 00 00       	push   $0x4ae8
    2c8e:	6a 01                	push   $0x1
    2c90:	e8 7b 0d 00 00       	call   3a10 <printf>
    2c95:	83 c4 10             	add    $0x10,%esp
    2c98:	eb 13                	jmp    2cad <forktest+0x2d>
    2c9a:	8d b6 00 00 00 00    	lea    0x0(%esi),%esi
    if(pid == 0)
    2ca0:	74 4d                	je     2cef <forktest+0x6f>
  for(n=0; n<1000; n++){
    2ca2:	83 c3 01             	add    $0x1,%ebx
    2ca5:	81 fb e8 03 00 00    	cmp    $0x3e8,%ebx
    2cab:	74 6e                	je     2d1b <forktest+0x9b>
    pid = fork();
    2cad:	e8 f9 0b 00 00       	call   38ab <fork>
    if(pid < 0)
    2cb2:	85 c0                	test   %eax,%eax
    2cb4:	79 ea                	jns    2ca0 <forktest+0x20>
  for(; n > 0; n--){
    2cb6:	85 db                	test   %ebx,%ebx
    2cb8:	74 14                	je     2cce <forktest+0x4e>
    2cba:	8d b6 00 00 00 00    	lea    0x0(%esi),%esi
    if(wait() < 0){
    2cc0:	e8 f6 0b 00 00       	call   38bb <wait>
    2cc5:	85 c0                	test   %eax,%eax
    2cc7:	78 2b                	js     2cf4 <forktest+0x74>
  for(; n > 0; n--){
    2cc9:	83 eb 01             	sub    $0x1,%ebx
    2ccc:	75 f2                	jne    2cc0 <forktest+0x40>
  if(wait() != -1){
    2cce:	e8 e8 0b 00 00       	call   38bb <wait>
    2cd3:	83 f8 ff             	cmp    $0xffffffff,%eax
    2cd6:	75 30                	jne    2d08 <forktest+0x88>
  printf(1, "fork test OK\n");
    2cd8:	83 ec 08             	sub    $0x8,%esp
    2cdb:	68 1a 4b 00 00       	push   $0x4b1a
    2ce0:	6a 01                	push   $0x1
    2ce2:	e8 29 0d 00 00       	call   3a10 <printf>
}
    2ce7:	8b 5d fc             	mov    -0x4(%ebp),%ebx
    2cea:	83 c4 10             	add    $0x10,%esp
    2ced:	c9                   	leave
    2cee:	c3                   	ret
      exit();
    2cef:	e8 bf 0b 00 00       	call   38b3 <exit>
      printf(1, "wait stopped early\n");
    2cf4:	83 ec 08             	sub    $0x8,%esp
    2cf7:	68 f3 4a 00 00       	push   $0x4af3
    2cfc:	6a 01                	push   $0x1
    2cfe:	e8 0d 0d 00 00       	call   3a10 <printf>
      exit();
    2d03:	e8 ab 0b 00 00       	call   38b3 <exit>
    printf(1, "wait got too many\n");
    2d08:	50                   	push   %eax
    2d09:	50                   	push   %eax
    2d0a:	68 07 4b 00 00       	push   $0x4b07
    2d0f:	6a 01                	push   $0x1
    2d11:	e8 fa 0c 00 00       	call   3a10 <printf>
    exit();
    2d16:	e8 98 0b 00 00       	call   38b3 <exit>
    printf(1, "fork claimed to work 1000 times!\n");
    2d1b:	52                   	push   %edx
    2d1c:	52                   	push   %edx
    2d1d:	68 88 52 00 00       	push   $0x5288
    2d22:	6a 01                	push   $0x1
    2d24:	e8 e7 0c 00 00       	call   3a10 <printf>
    exit();
    2d29:	e8 85 0b 00 00       	call   38b3 <exit>
    2d2e:	66 90                	xchg   %ax,%ax

00002d30 <sbrktest>:
{
    2d30:	55                   	push   %ebp
    2d31:	89 e5                	mov    %esp,%ebp
    2d33:	57                   	push   %edi
    2d34:	56                   	push   %esi
  for(i = 0; i < 5000; i++){
    2d35:	31 f6                	xor    %esi,%esi
{
    2d37:	53                   	push   %ebx
    2d38:	83 ec 64             	sub    $0x64,%esp
  printf(stdout, "sbrk test\n");
    2d3b:	68 28 4b 00 00       	push   $0x4b28
    2d40:	ff 35 18 5e 00 00    	push   0x5e18
    2d46:	e8 c5 0c 00 00       	call   3a10 <printf>
  oldbrk = sbrk(0);
    2d4b:	c7 04 24 00 00 00 00 	movl   $0x0,(%esp)
    2d52:	e8 e4 0b 00 00       	call   393b <sbrk>
    2d57:	89 45 a4             	mov    %eax,-0x5c(%ebp)
  a = sbrk(0);
    2d5a:	c7 04 24 00 00 00 00 	movl   $0x0,(%esp)
    2d61:	e8 d5 0b 00 00       	call   393b <sbrk>
    2d66:	83 c4 10             	add    $0x10,%esp
    2d69:	89 c3                	mov    %eax,%ebx
  for(i = 0; i < 5000; i++){
    2d6b:	eb 05                	jmp    2d72 <sbrktest+0x42>
    2d6d:	8d 76 00             	lea    0x0(%esi),%esi
    a = b + 1;
    2d70:	89 c3                	mov    %eax,%ebx
    b = sbrk(1);
    2d72:	83 ec 0c             	sub    $0xc,%esp
    2d75:	6a 01                	push   $0x1
    2d77:	e8 bf 0b 00 00       	call   393b <sbrk>
    if(b != a){
    2d7c:	83 c4 10             	add    $0x10,%esp
    2d7f:	39 d8                	cmp    %ebx,%eax
    2d81:	0f 85 9c 02 00 00    	jne    3023 <sbrktest+0x2f3>
  for(i = 0; i < 5000; i++){
    2d87:	83 c6 01             	add    $0x1,%esi
    *b = 1;
    2d8a:	c6 03 01             	movb   $0x1,(%ebx)
    a = b + 1;
    2d8d:	8d 43 01             	lea    0x1(%ebx),%eax
  for(i = 0; i < 5000; i++){
    2d90:	81 fe 88 13 00 00    	cmp    $0x1388,%esi
    2d96:	75 d8                	jne    2d70 <sbrktest+0x40>
  pid = fork();
    2d98:	e8 0e 0b 00 00       	call   38ab <fork>
    2d9d:	89 c6                	mov    %eax,%esi
  if(pid < 0){
    2d9f:	85 c0                	test   %eax,%eax
    2da1:	0f 88 02 03 00 00    	js     30a9 <sbrktest+0x379>
  c = sbrk(1);
    2da7:	83 ec 0c             	sub    $0xc,%esp
  if(c != a + 1){
    2daa:	83 c3 02             	add    $0x2,%ebx
  c = sbrk(1);
    2dad:	6a 01                	push   $0x1
    2daf:	e8 87 0b 00 00       	call   393b <sbrk>
  c = sbrk(1);
    2db4:	c7 04 24 01 00 00 00 	movl   $0x1,(%esp)
    2dbb:	e8 7b 0b 00 00       	call   393b <sbrk>
  if(c != a + 1){
    2dc0:	83 c4 10             	add    $0x10,%esp
    2dc3:	39 c3                	cmp    %eax,%ebx
    2dc5:	0f 85 3b 03 00 00    	jne    3106 <sbrktest+0x3d6>
  if(pid == 0)
    2dcb:	85 f6                	test   %esi,%esi
    2dcd:	0f 84 2e 03 00 00    	je     3101 <sbrktest+0x3d1>
  wait();
    2dd3:	e8 e3 0a 00 00       	call   38bb <wait>
  a = sbrk(0);
    2dd8:	83 ec 0c             	sub    $0xc,%esp
    2ddb:	6a 00                	push   $0x0
    2ddd:	e8 59 0b 00 00       	call   393b <sbrk>
    2de2:	89 c3                	mov    %eax,%ebx
  amt = (BIG) - (uint)a;
    2de4:	b8 00 00 40 06       	mov    $0x6400000,%eax
    2de9:	29 d8                	sub    %ebx,%eax
  p = sbrk(amt);
    2deb:	89 04 24             	mov    %eax,(%esp)
    2dee:	e8 48 0b 00 00       	call   393b <sbrk>
  if (p != a) {
    2df3:	83 c4 10             	add    $0x10,%esp
    2df6:	39 c3                	cmp    %eax,%ebx
    2df8:	0f 85 94 02 00 00    	jne    3092 <sbrktest+0x362>
  a = sbrk(0);
    2dfe:	83 ec 0c             	sub    $0xc,%esp
  *lastaddr = 99;
    2e01:	c6 05 ff ff 3f 06 63 	movb   $0x63,0x63fffff
  a = sbrk(0);
    2e08:	6a 00                	push   $0x0
    2e0a:	e8 2c 0b 00 00       	call   393b <sbrk>
  c = sbrk(-4096);
    2e0f:	c7 04 24 00 f0 ff ff 	movl   $0xfffff000,(%esp)
  a = sbrk(0);
    2e16:	89 c3                	mov    %eax,%ebx
  c = sbrk(-4096);
    2e18:	e8 1e 0b 00 00       	call   393b <sbrk>
  if(c == (char*)0xffffffff){
    2e1d:	83 c4 10             	add    $0x10,%esp
    2e20:	83 f8 ff             	cmp    $0xffffffff,%eax
    2e23:	0f 84 22 03 00 00    	je     314b <sbrktest+0x41b>
  c = sbrk(0);
    2e29:	83 ec 0c             	sub    $0xc,%esp
    2e2c:	6a 00                	push   $0x0
    2e2e:	e8 08 0b 00 00       	call   393b <sbrk>
  if(c != a - 4096){
    2e33:	8d 93 00 f0 ff ff    	lea    -0x1000(%ebx),%edx
    2e39:	83 c4 10             	add    $0x10,%esp
    2e3c:	39 d0                	cmp    %edx,%eax
    2e3e:	0f 85 f0 02 00 00    	jne    3134 <sbrktest+0x404>
  a = sbrk(0);
    2e44:	83 ec 0c             	sub    $0xc,%esp
    2e47:	6a 00                	push   $0x0
    2e49:	e8 ed 0a 00 00       	call   393b <sbrk>
  c = sbrk(4096);
    2e4e:	c7 04 24 00 10 00 00 	movl   $0x1000,(%esp)
  a = sbrk(0);
    2e55:	89 c3                	mov    %eax,%ebx
  c = sbrk(4096);
    2e57:	e8 df 0a 00 00       	call   393b <sbrk>
  if(c != a || sbrk(0) != a + 4096){
    2e5c:	83 c4 10             	add    $0x10,%esp
  c = sbrk(4096);
    2e5f:	89 c6                	mov    %eax,%esi
  if(c != a || sbrk(0) != a + 4096){
    2e61:	39 c3                	cmp    %eax,%ebx
    2e63:	0f 85 b4 02 00 00    	jne    311d <sbrktest+0x3ed>
    2e69:	83 ec 0c             	sub    $0xc,%esp
    2e6c:	6a 00                	push   $0x0
    2e6e:	e8 c8 0a 00 00       	call   393b <sbrk>
    2e73:	8d 93 00 10 00 00    	lea    0x1000(%ebx),%edx
    2e79:	83 c4 10             	add    $0x10,%esp
    2e7c:	39 c2                	cmp    %eax,%edx
    2e7e:	0f 85 99 02 00 00    	jne    311d <sbrktest+0x3ed>
  if(*lastaddr == 99){
    2e84:	80 3d ff ff 3f 06 63 	cmpb   $0x63,0x63fffff
    2e8b:	0f 84 2f 02 00 00    	je     30c0 <sbrktest+0x390>
  a = sbrk(0);
    2e91:	83 ec 0c             	sub    $0xc,%esp
    2e94:	6a 00                	push   $0x0
    2e96:	e8 a0 0a 00 00       	call   393b <sbrk>
  c = sbrk(-(sbrk(0) - oldbrk));
    2e9b:	c7 04 24 00 00 00 00 	movl   $0x0,(%esp)
  a = sbrk(0);
    2ea2:	89 c3                	mov    %eax,%ebx
  c = sbrk(-(sbrk(0) - oldbrk));
    2ea4:	e8 92 0a 00 00       	call   393b <sbrk>
    2ea9:	89 c2                	mov    %eax,%edx
    2eab:	8b 45 a4             	mov    -0x5c(%ebp),%eax
    2eae:	29 d0                	sub    %edx,%eax
    2eb0:	89 04 24             	mov    %eax,(%esp)
    2eb3:	e8 83 0a 00 00       	call   393b <sbrk>
  if(c != a){
    2eb8:	83 c4 10             	add    $0x10,%esp
    2ebb:	39 c3                	cmp    %eax,%ebx
    2ebd:	0f 85 b8 01 00 00    	jne    307b <sbrktest+0x34b>
  for(a = (char*)(KERNBASE); a < (char*) (KERNBASE+2000000); a += 50000){
    2ec3:	bb 00 00 00 80       	mov    $0x80000000,%ebx
    2ec8:	8d b4 26 00 00 00 00 	lea    0x0(%esi,%eiz,1),%esi
    2ecf:	90                   	nop
    ppid = getpid();
    2ed0:	e8 5e 0a 00 00       	call   3933 <getpid>
    2ed5:	89 c6                	mov    %eax,%esi
    pid = fork();
    2ed7:	e8 cf 09 00 00       	call   38ab <fork>
    if(pid < 0){
    2edc:	85 c0                	test   %eax,%eax
    2ede:	0f 88 5d 01 00 00    	js     3041 <sbrktest+0x311>
    if(pid == 0){
    2ee4:	0f 84 6f 01 00 00    	je     3059 <sbrktest+0x329>
    wait();
    2eea:	e8 cc 09 00 00       	call   38bb <wait>
  for(a = (char*)(KERNBASE); a < (char*) (KERNBASE+2000000); a += 50000){
    2eef:	81 c3 50 c3 00 00    	add    $0xc350,%ebx
    2ef5:	81 fb 80 84 1e 80    	cmp    $0x801e8480,%ebx
    2efb:	75 d3                	jne    2ed0 <sbrktest+0x1a0>
  if(pipe(fds) != 0){
    2efd:	83 ec 0c             	sub    $0xc,%esp
    2f00:	8d 45 b8             	lea    -0x48(%ebp),%eax
    2f03:	50                   	push   %eax
    2f04:	e8 ba 09 00 00       	call   38c3 <pipe>
    2f09:	83 c4 10             	add    $0x10,%esp
    2f0c:	85 c0                	test   %eax,%eax
    2f0e:	0f 85 da 01 00 00    	jne    30ee <sbrktest+0x3be>
    2f14:	8d 5d c0             	lea    -0x40(%ebp),%ebx
    2f17:	8d 75 e8             	lea    -0x18(%ebp),%esi
    2f1a:	89 df                	mov    %ebx,%edi
    2f1c:	8d 74 26 00          	lea    0x0(%esi,%eiz,1),%esi
    if((pids[i] = fork()) == 0){
    2f20:	e8 86 09 00 00       	call   38ab <fork>
    2f25:	89 07                	mov    %eax,(%edi)
    2f27:	85 c0                	test   %eax,%eax
    2f29:	0f 84 91 00 00 00    	je     2fc0 <sbrktest+0x290>
    if(pids[i] != -1)
    2f2f:	83 f8 ff             	cmp    $0xffffffff,%eax
    2f32:	74 14                	je     2f48 <sbrktest+0x218>
      read(fds[0], &scratch, 1);
    2f34:	83 ec 04             	sub    $0x4,%esp
    2f37:	8d 45 b7             	lea    -0x49(%ebp),%eax
    2f3a:	6a 01                	push   $0x1
    2f3c:	50                   	push   %eax
    2f3d:	ff 75 b8             	push   -0x48(%ebp)
    2f40:	e8 86 09 00 00       	call   38cb <read>
    2f45:	83 c4 10             	add    $0x10,%esp
  for(i = 0; i < sizeof(pids)/sizeof(pids[0]); i++){
    2f48:	83 c7 04             	add    $0x4,%edi
    2f4b:	39 f7                	cmp    %esi,%edi
    2f4d:	75 d1                	jne    2f20 <sbrktest+0x1f0>
  c = sbrk(4096);
    2f4f:	83 ec 0c             	sub    $0xc,%esp
    2f52:	68 00 10 00 00       	push   $0x1000
    2f57:	e8 df 09 00 00       	call   393b <sbrk>
    2f5c:	83 c4 10             	add    $0x10,%esp
    2f5f:	89 c7                	mov    %eax,%edi
  for(i = 0; i < sizeof(pids)/sizeof(pids[0]); i++){
    2f61:	8d b4 26 00 00 00 00 	lea    0x0(%esi,%eiz,1),%esi
    if(pids[i] == -1)
    2f68:	8b 03                	mov    (%ebx),%eax
    2f6a:	83 f8 ff             	cmp    $0xffffffff,%eax
    2f6d:	74 11                	je     2f80 <sbrktest+0x250>
    kill(pids[i]);
    2f6f:	83 ec 0c             	sub    $0xc,%esp
    2f72:	50                   	push   %eax
    2f73:	e8 6b 09 00 00       	call   38e3 <kill>
    wait();
    2f78:	e8 3e 09 00 00       	call   38bb <wait>
    2f7d:	83 c4 10             	add    $0x10,%esp
  for(i = 0; i < sizeof(pids)/sizeof(pids[0]); i++){
    2f80:	83 c3 04             	add    $0x4,%ebx
    2f83:	39 f3                	cmp    %esi,%ebx
    2f85:	75 e1                	jne    2f68 <sbrktest+0x238>
  if(c == (char*)0xffffffff){
    2f87:	83 ff ff             	cmp    $0xffffffff,%edi
    2f8a:	0f 84 47 01 00 00    	je     30d7 <sbrktest+0x3a7>
  if(sbrk(0) > oldbrk)
    2f90:	83 ec 0c             	sub    $0xc,%esp
    2f93:	6a 00                	push   $0x0
    2f95:	e8 a1 09 00 00       	call   393b <sbrk>
    2f9a:	83 c4 10             	add    $0x10,%esp
    2f9d:	39 45 a4             	cmp    %eax,-0x5c(%ebp)
    2fa0:	72 60                	jb     3002 <sbrktest+0x2d2>
  printf(stdout, "sbrk test OK\n");
    2fa2:	83 ec 08             	sub    $0x8,%esp
    2fa5:	68 d0 4b 00 00       	push   $0x4bd0
    2faa:	ff 35 18 5e 00 00    	push   0x5e18
    2fb0:	e8 5b 0a 00 00       	call   3a10 <printf>
}
    2fb5:	83 c4 10             	add    $0x10,%esp
    2fb8:	8d 65 f4             	lea    -0xc(%ebp),%esp
    2fbb:	5b                   	pop    %ebx
    2fbc:	5e                   	pop    %esi
    2fbd:	5f                   	pop    %edi
    2fbe:	5d                   	pop    %ebp
    2fbf:	c3                   	ret
      sbrk(BIG - (uint)sbrk(0));
    2fc0:	83 ec 0c             	sub    $0xc,%esp
    2fc3:	6a 00                	push   $0x0
    2fc5:	e8 71 09 00 00       	call   393b <sbrk>
    2fca:	89 c2                	mov    %eax,%edx
    2fcc:	b8 00 00 40 06       	mov    $0x6400000,%eax
    2fd1:	29 d0                	sub    %edx,%eax
    2fd3:	89 04 24             	mov    %eax,(%esp)
    2fd6:	e8 60 09 00 00       	call   393b <sbrk>
      write(fds[1], "x", 1);
    2fdb:	83 c4 0c             	add    $0xc,%esp
    2fde:	6a 01                	push   $0x1
    2fe0:	68 91 46 00 00       	push   $0x4691
    2fe5:	ff 75 bc             	push   -0x44(%ebp)
    2fe8:	e8 e6 08 00 00       	call   38d3 <write>
    2fed:	83 c4 10             	add    $0x10,%esp
      for(;;) sleep(1000);
    2ff0:	83 ec 0c             	sub    $0xc,%esp
    2ff3:	68 e8 03 00 00       	push   $0x3e8
    2ff8:	e8 46 09 00 00       	call   3943 <sleep>
    2ffd:	83 c4 10             	add    $0x10,%esp
    3000:	eb ee                	jmp    2ff0 <sbrktest+0x2c0>
    sbrk(-(sbrk(0) - oldbrk));
    3002:	83 ec 0c             	sub    $0xc,%esp
    3005:	6a 00                	push   $0x0
    3007:	e8 2f 09 00 00       	call   393b <sbrk>
    300c:	89 c2                	mov    %eax,%edx
    300e:	8b 45 a4             	mov    -0x5c(%ebp),%eax
    3011:	29 d0                	sub    %edx,%eax
    3013:	89 04 24             	mov    %eax,(%esp)
    3016:	e8 20 09 00 00       	call   393b <sbrk>
    301b:	83 c4 10             	add    $0x10,%esp
    301e:	e9 7f ff ff ff       	jmp    2fa2 <sbrktest+0x272>
      printf(stdout, "sbrk test failed %d %x %x\n", i, a, b);
    3023:	83 ec 0c             	sub    $0xc,%esp
    3026:	50                   	push   %eax
    3027:	53                   	push   %ebx
    3028:	56                   	push   %esi
    3029:	68 33 4b 00 00       	push   $0x4b33
    302e:	ff 35 18 5e 00 00    	push   0x5e18
    3034:	e8 d7 09 00 00       	call   3a10 <printf>
      exit();
    3039:	83 c4 20             	add    $0x20,%esp
    303c:	e8 72 08 00 00       	call   38b3 <exit>
      printf(stdout, "fork failed\n");
    3041:	83 ec 08             	sub    $0x8,%esp
    3044:	68 79 4c 00 00       	push   $0x4c79
    3049:	ff 35 18 5e 00 00    	push   0x5e18
    304f:	e8 bc 09 00 00       	call   3a10 <printf>
      exit();
    3054:	e8 5a 08 00 00       	call   38b3 <exit>
      printf(stdout, "oops could read %x = %x\n", a, *a);
    3059:	0f be 03             	movsbl (%ebx),%eax
    305c:	50                   	push   %eax
    305d:	53                   	push   %ebx
    305e:	68 9c 4b 00 00       	push   $0x4b9c
    3063:	ff 35 18 5e 00 00    	push   0x5e18
    3069:	e8 a2 09 00 00       	call   3a10 <printf>
      kill(ppid);
    306e:	89 34 24             	mov    %esi,(%esp)
    3071:	e8 6d 08 00 00       	call   38e3 <kill>
      exit();
    3076:	e8 38 08 00 00       	call   38b3 <exit>
    printf(stdout, "sbrk downsize failed, a %x c %x\n", a, c);
    307b:	50                   	push   %eax
    307c:	53                   	push   %ebx
    307d:	68 7c 53 00 00       	push   $0x537c
    3082:	ff 35 18 5e 00 00    	push   0x5e18
    3088:	e8 83 09 00 00       	call   3a10 <printf>
    exit();
    308d:	e8 21 08 00 00       	call   38b3 <exit>
    printf(stdout, "sbrk test failed to grow big address space; enough phys mem?\n");
    3092:	56                   	push   %esi
    3093:	56                   	push   %esi
    3094:	68 ac 52 00 00       	push   $0x52ac
    3099:	ff 35 18 5e 00 00    	push   0x5e18
    309f:	e8 6c 09 00 00       	call   3a10 <printf>
    exit();
    30a4:	e8 0a 08 00 00       	call   38b3 <exit>
    printf(stdout, "sbrk test fork failed\n");
    30a9:	50                   	push   %eax
    30aa:	50                   	push   %eax
    30ab:	68 4e 4b 00 00       	push   $0x4b4e
    30b0:	ff 35 18 5e 00 00    	push   0x5e18
    30b6:	e8 55 09 00 00       	call   3a10 <printf>
    exit();
    30bb:	e8 f3 07 00 00       	call   38b3 <exit>
    printf(stdout, "sbrk de-allocation didn't really deallocate\n");
    30c0:	51                   	push   %ecx
    30c1:	51                   	push   %ecx
    30c2:	68 4c 53 00 00       	push   $0x534c
    30c7:	ff 35 18 5e 00 00    	push   0x5e18
    30cd:	e8 3e 09 00 00       	call   3a10 <printf>
    exit();
    30d2:	e8 dc 07 00 00       	call   38b3 <exit>
    printf(stdout, "failed sbrk leaked memory\n");
    30d7:	50                   	push   %eax
    30d8:	50                   	push   %eax
    30d9:	68 b5 4b 00 00       	push   $0x4bb5
    30de:	ff 35 18 5e 00 00    	push   0x5e18
    30e4:	e8 27 09 00 00       	call   3a10 <printf>
    exit();
    30e9:	e8 c5 07 00 00       	call   38b3 <exit>
    printf(1, "pipe() failed\n");
    30ee:	52                   	push   %edx
    30ef:	52                   	push   %edx
    30f0:	68 71 40 00 00       	push   $0x4071
    30f5:	6a 01                	push   $0x1
    30f7:	e8 14 09 00 00       	call   3a10 <printf>
    exit();
    30fc:	e8 b2 07 00 00       	call   38b3 <exit>
    exit();
    3101:	e8 ad 07 00 00       	call   38b3 <exit>
    printf(stdout, "sbrk test failed post-fork\n");
    3106:	57                   	push   %edi
    3107:	57                   	push   %edi
    3108:	68 65 4b 00 00       	push   $0x4b65
    310d:	ff 35 18 5e 00 00    	push   0x5e18
    3113:	e8 f8 08 00 00       	call   3a10 <printf>
    exit();
    3118:	e8 96 07 00 00       	call   38b3 <exit>
    printf(stdout, "sbrk re-allocation failed, a %x c %x\n", a, c);
    311d:	56                   	push   %esi
    311e:	53                   	push   %ebx
    311f:	68 24 53 00 00       	push   $0x5324
    3124:	ff 35 18 5e 00 00    	push   0x5e18
    312a:	e8 e1 08 00 00       	call   3a10 <printf>
    exit();
    312f:	e8 7f 07 00 00       	call   38b3 <exit>
    printf(stdout, "sbrk deallocation produced wrong address, a %x c %x\n", a, c);
    3134:	50                   	push   %eax
    3135:	53                   	push   %ebx
    3136:	68 ec 52 00 00       	push   $0x52ec
    313b:	ff 35 18 5e 00 00    	push   0x5e18
    3141:	e8 ca 08 00 00       	call   3a10 <printf>
    exit();
    3146:	e8 68 07 00 00       	call   38b3 <exit>
    printf(stdout, "sbrk could not deallocate\n");
    314b:	53                   	push   %ebx
    314c:	53                   	push   %ebx
    314d:	68 81 4b 00 00       	push   $0x4b81
    3152:	ff 35 18 5e 00 00    	push   0x5e18
    3158:	e8 b3 08 00 00       	call   3a10 <printf>
    exit();
    315d:	e8 51 07 00 00       	call   38b3 <exit>
    3162:	8d b4 26 00 00 00 00 	lea    0x0(%esi,%eiz,1),%esi
    3169:	8d b4 26 00 00 00 00 	lea    0x0(%esi,%eiz,1),%esi

00003170 <validateint>:
}
    3170:	c3                   	ret
    3171:	8d b4 26 00 00 00 00 	lea    0x0(%esi,%eiz,1),%esi
    3178:	8d b4 26 00 00 00 00 	lea    0x0(%esi,%eiz,1),%esi
    317f:	90                   	nop

00003180 <validatetest>:
{
    3180:	55                   	push   %ebp
    3181:	89 e5                	mov    %esp,%ebp
    3183:	56                   	push   %esi
  for(p = 0; p <= (uint)hi; p += 4096){
    3184:	31 f6                	xor    %esi,%esi
{
    3186:	53                   	push   %ebx
  printf(stdout, "validate test\n");
    3187:	83 ec 08             	sub    $0x8,%esp
    318a:	68 de 4b 00 00       	push   $0x4bde
    318f:	ff 35 18 5e 00 00    	push   0x5e18
    3195:	e8 76 08 00 00       	call   3a10 <printf>
    319a:	83 c4 10             	add    $0x10,%esp
    319d:	8d 76 00             	lea    0x0(%esi),%esi
    if((pid = fork()) == 0){
    31a0:	e8 06 07 00 00       	call   38ab <fork>
    31a5:	89 c3                	mov    %eax,%ebx
    31a7:	85 c0                	test   %eax,%eax
    31a9:	74 63                	je     320e <validatetest+0x8e>
    sleep(0);
    31ab:	83 ec 0c             	sub    $0xc,%esp
    31ae:	6a 00                	push   $0x0
    31b0:	e8 8e 07 00 00       	call   3943 <sleep>
    sleep(0);
    31b5:	c7 04 24 00 00 00 00 	movl   $0x0,(%esp)
    31bc:	e8 82 07 00 00       	call   3943 <sleep>
    kill(pid);
    31c1:	89 1c 24             	mov    %ebx,(%esp)
    31c4:	e8 1a 07 00 00       	call   38e3 <kill>
    wait();
    31c9:	e8 ed 06 00 00       	call   38bb <wait>
    if(link("nosuchfile", (char*)p) != -1){
    31ce:	58                   	pop    %eax
    31cf:	5a                   	pop    %edx
    31d0:	56                   	push   %esi
    31d1:	68 ed 4b 00 00       	push   $0x4bed
    31d6:	e8 38 07 00 00       	call   3913 <link>
    31db:	83 c4 10             	add    $0x10,%esp
    31de:	83 f8 ff             	cmp    $0xffffffff,%eax
    31e1:	75 30                	jne    3213 <validatetest+0x93>
  for(p = 0; p <= (uint)hi; p += 4096){
    31e3:	81 c6 00 10 00 00    	add    $0x1000,%esi
    31e9:	81 fe 00 40 11 00    	cmp    $0x114000,%esi
    31ef:	75 af                	jne    31a0 <validatetest+0x20>
  printf(stdout, "validate ok\n");
    31f1:	83 ec 08             	sub    $0x8,%esp
    31f4:	68 11 4c 00 00       	push   $0x4c11
    31f9:	ff 35 18 5e 00 00    	push   0x5e18
    31ff:	e8 0c 08 00 00       	call   3a10 <printf>
}
    3204:	83 c4 10             	add    $0x10,%esp
    3207:	8d 65 f8             	lea    -0x8(%ebp),%esp
    320a:	5b                   	pop    %ebx
    320b:	5e                   	pop    %esi
    320c:	5d                   	pop    %ebp
    320d:	c3                   	ret
      exit();
    320e:	e8 a0 06 00 00       	call   38b3 <exit>
      printf(stdout, "link should not succeed\n");
    3213:	83 ec 08             	sub    $0x8,%esp
    3216:	68 f8 4b 00 00       	push   $0x4bf8
    321b:	ff 35 18 5e 00 00    	push   0x5e18
    3221:	e8 ea 07 00 00       	call   3a10 <printf>
      exit();
    3226:	e8 88 06 00 00       	call   38b3 <exit>
    322b:	8d 74 26 00          	lea    0x0(%esi,%eiz,1),%esi
    322f:	90                   	nop

00003230 <bsstest>:
{
    3230:	55                   	push   %ebp
    3231:	89 e5                	mov    %esp,%ebp
    3233:	83 ec 10             	sub    $0x10,%esp
  printf(stdout, "bss test\n");
    3236:	68 1e 4c 00 00       	push   $0x4c1e
    323b:	ff 35 18 5e 00 00    	push   0x5e18
    3241:	e8 ca 07 00 00       	call   3a10 <printf>
    3246:	83 c4 10             	add    $0x10,%esp
  for(i = 0; i < sizeof(uninit); i++){
    3249:	31 c0                	xor    %eax,%eax
    324b:	8d 74 26 00          	lea    0x0(%esi,%eiz,1),%esi
    324f:	90                   	nop
    if(uninit[i] != '\0'){
    3250:	80 b8 40 5e 00 00 00 	cmpb   $0x0,0x5e40(%eax)
    3257:	75 22                	jne    327b <bsstest+0x4b>
  for(i = 0; i < sizeof(uninit); i++){
    3259:	83 c0 01             	add    $0x1,%eax
    325c:	3d 10 27 00 00       	cmp    $0x2710,%eax
    3261:	75 ed                	jne    3250 <bsstest+0x20>
  printf(stdout, "bss test ok\n");
    3263:	83 ec 08             	sub    $0x8,%esp
    3266:	68 39 4c 00 00       	push   $0x4c39
    326b:	ff 35 18 5e 00 00    	push   0x5e18
    3271:	e8 9a 07 00 00       	call   3a10 <printf>
}
    3276:	83 c4 10             	add    $0x10,%esp
    3279:	c9                   	leave
    327a:	c3                   	ret
      printf(stdout, "bss test failed\n");
    327b:	83 ec 08             	sub    $0x8,%esp
    327e:	68 28 4c 00 00       	push   $0x4c28
    3283:	ff 35 18 5e 00 00    	push   0x5e18
    3289:	e8 82 07 00 00       	call   3a10 <printf>
      exit();
    328e:	e8 20 06 00 00       	call   38b3 <exit>
    3293:	8d b4 26 00 00 00 00 	lea    0x0(%esi,%eiz,1),%esi
    329a:	8d b6 00 00 00 00    	lea    0x0(%esi),%esi

000032a0 <bigargtest>:
{
    32a0:	55                   	push   %ebp
    32a1:	89 e5                	mov    %esp,%ebp
    32a3:	83 ec 14             	sub    $0x14,%esp
  unlink("bigarg-ok");
    32a6:	68 46 4c 00 00       	push   $0x4c46
    32ab:	e8 53 06 00 00       	call   3903 <unlink>
  pid = fork();
    32b0:	e8 f6 05 00 00       	call   38ab <fork>
  if(pid == 0){
    32b5:	83 c4 10             	add    $0x10,%esp
    32b8:	85 c0                	test   %eax,%eax
    32ba:	74 44                	je     3300 <bigargtest+0x60>
  } else if(pid < 0){
    32bc:	0f 88 c3 00 00 00    	js     3385 <bigargtest+0xe5>
  wait();
    32c2:	e8 f4 05 00 00       	call   38bb <wait>
  fd = open("bigarg-ok", 0);
    32c7:	83 ec 08             	sub    $0x8,%esp
    32ca:	6a 00                	push   $0x0
    32cc:	68 46 4c 00 00       	push   $0x4c46
    32d1:	e8 1d 06 00 00       	call   38f3 <open>
  if(fd < 0){
    32d6:	83 c4 10             	add    $0x10,%esp
    32d9:	85 c0                	test   %eax,%eax
    32db:	0f 88 8d 00 00 00    	js     336e <bigargtest+0xce>
  close(fd);
    32e1:	83 ec 0c             	sub    $0xc,%esp
    32e4:	50                   	push   %eax
    32e5:	e8 f1 05 00 00       	call   38db <close>
  unlink("bigarg-ok");
    32ea:	c7 04 24 46 4c 00 00 	movl   $0x4c46,(%esp)
    32f1:	e8 0d 06 00 00       	call   3903 <unlink>
}
    32f6:	83 c4 10             	add    $0x10,%esp
    32f9:	c9                   	leave
    32fa:	c3                   	ret
    32fb:	8d 74 26 00          	lea    0x0(%esi,%eiz,1),%esi
    32ff:	90                   	nop
      args[i] = "bigargs test: failed\n                                                                                                                                                                                                       ";
    3300:	c7 04 85 60 a5 00 00 	movl   $0x53a0,0xa560(,%eax,4)
    3307:	a0 53 00 00 
    for(i = 0; i < MAXARG-1; i++)
    330b:	83 c0 01             	add    $0x1,%eax
    330e:	83 f8 1f             	cmp    $0x1f,%eax
    3311:	75 ed                	jne    3300 <bigargtest+0x60>
    args[MAXARG-1] = 0;
    3313:	31 c9                	xor    %ecx,%ecx
    3315:	89 0d dc a5 00 00    	mov    %ecx,0xa5dc
    printf(stdout, "bigarg test\n");
    331b:	50                   	push   %eax
    331c:	50                   	push   %eax
    331d:	68 50 4c 00 00       	push   $0x4c50
    3322:	ff 35 18 5e 00 00    	push   0x5e18
    3328:	e8 e3 06 00 00       	call   3a10 <printf>
    exec("echo", args);
    332d:	58                   	pop    %eax
    332e:	5a                   	pop    %edx
    332f:	68 60 a5 00 00       	push   $0xa560
    3334:	68 1d 3e 00 00       	push   $0x3e1d
    3339:	e8 ad 05 00 00       	call   38eb <exec>
    printf(stdout, "bigarg test ok\n");
    333e:	59                   	pop    %ecx
    333f:	58                   	pop    %eax
    3340:	68 5d 4c 00 00       	push   $0x4c5d
    3345:	ff 35 18 5e 00 00    	push   0x5e18
    334b:	e8 c0 06 00 00       	call   3a10 <printf>
    fd = open("bigarg-ok", O_CREATE);
    3350:	58                   	pop    %eax
    3351:	5a                   	pop    %edx
    3352:	68 00 02 00 00       	push   $0x200
    3357:	68 46 4c 00 00       	push   $0x4c46
    335c:	e8 92 05 00 00       	call   38f3 <open>
    close(fd);
    3361:	89 04 24             	mov    %eax,(%esp)
    3364:	e8 72 05 00 00       	call   38db <close>
    exit();
    3369:	e8 45 05 00 00       	call   38b3 <exit>
    printf(stdout, "bigarg test failed!\n");
    336e:	50                   	push   %eax
    336f:	50                   	push   %eax
    3370:	68 86 4c 00 00       	push   $0x4c86
    3375:	ff 35 18 5e 00 00    	push   0x5e18
    337b:	e8 90 06 00 00       	call   3a10 <printf>
    exit();
    3380:	e8 2e 05 00 00       	call   38b3 <exit>
    printf(stdout, "bigargtest: fork failed\n");
    3385:	52                   	push   %edx
    3386:	52                   	push   %edx
    3387:	68 6d 4c 00 00       	push   $0x4c6d
    338c:	ff 35 18 5e 00 00    	push   0x5e18
    3392:	e8 79 06 00 00       	call   3a10 <printf>
    exit();
    3397:	e8 17 05 00 00       	call   38b3 <exit>
    339c:	8d 74 26 00          	lea    0x0(%esi,%eiz,1),%esi

000033a0 <fsfull>:
{
    33a0:	55                   	push   %ebp
    33a1:	89 e5                	mov    %esp,%ebp
    33a3:	57                   	push   %edi
    33a4:	56                   	push   %esi
  for(nfiles = 0; ; nfiles++){
    33a5:	31 f6                	xor    %esi,%esi
{
    33a7:	53                   	push   %ebx
    33a8:	83 ec 54             	sub    $0x54,%esp
  printf(1, "fsfull test\n");
    33ab:	68 9b 4c 00 00       	push   $0x4c9b
    33b0:	6a 01                	push   $0x1
    33b2:	e8 59 06 00 00       	call   3a10 <printf>
    33b7:	83 c4 10             	add    $0x10,%esp
    33ba:	8d b6 00 00 00 00    	lea    0x0(%esi),%esi
    name[1] = '0' + nfiles / 1000;
    33c0:	b8 d3 4d 62 10       	mov    $0x10624dd3,%eax
    name[3] = '0' + (nfiles % 100) / 10;
    33c5:	b9 cd cc cc cc       	mov    $0xcccccccd,%ecx
    printf(1, "writing %s\n", name);
    33ca:	83 ec 04             	sub    $0x4,%esp
    name[0] = 'f';
    33cd:	c6 45 a8 66          	movb   $0x66,-0x58(%ebp)
    name[1] = '0' + nfiles / 1000;
    33d1:	f7 e6                	mul    %esi
    name[5] = '\0';
    33d3:	c6 45 ad 00          	movb   $0x0,-0x53(%ebp)
    name[1] = '0' + nfiles / 1000;
    33d7:	c1 ea 06             	shr    $0x6,%edx
    33da:	8d 42 30             	lea    0x30(%edx),%eax
    33dd:	88 45 a9             	mov    %al,-0x57(%ebp)
    name[2] = '0' + (nfiles % 1000) / 100;
    33e0:	69 c2 e8 03 00 00    	imul   $0x3e8,%edx,%eax
    33e6:	89 f2                	mov    %esi,%edx
    33e8:	29 c2                	sub    %eax,%edx
    33ea:	b8 1f 85 eb 51       	mov    $0x51eb851f,%eax
    33ef:	f7 e2                	mul    %edx
    name[3] = '0' + (nfiles % 100) / 10;
    33f1:	b8 1f 85 eb 51       	mov    $0x51eb851f,%eax
    name[2] = '0' + (nfiles % 1000) / 100;
    33f6:	c1 ea 05             	shr    $0x5,%edx
    33f9:	83 c2 30             	add    $0x30,%edx
    33fc:	88 55 aa             	mov    %dl,-0x56(%ebp)
    name[3] = '0' + (nfiles % 100) / 10;
    33ff:	f7 e6                	mul    %esi
    3401:	c1 ea 05             	shr    $0x5,%edx
    3404:	6b c2 64             	imul   $0x64,%edx,%eax
    3407:	89 f2                	mov    %esi,%edx
    3409:	29 c2                	sub    %eax,%edx
    340b:	89 d0                	mov    %edx,%eax
    340d:	f7 e1                	mul    %ecx
    name[4] = '0' + (nfiles % 10);
    340f:	89 f0                	mov    %esi,%eax
    name[3] = '0' + (nfiles % 100) / 10;
    3411:	c1 ea 03             	shr    $0x3,%edx
    3414:	83 c2 30             	add    $0x30,%edx
    3417:	88 55 ab             	mov    %dl,-0x55(%ebp)
    name[4] = '0' + (nfiles % 10);
    341a:	f7 e1                	mul    %ecx
    341c:	89 f0                	mov    %esi,%eax
    341e:	c1 ea 03             	shr    $0x3,%edx
    3421:	8d 14 92             	lea    (%edx,%edx,4),%edx
    3424:	01 d2                	add    %edx,%edx
    3426:	29 d0                	sub    %edx,%eax
    3428:	83 c0 30             	add    $0x30,%eax
    342b:	88 45 ac             	mov    %al,-0x54(%ebp)
    printf(1, "writing %s\n", name);
    342e:	8d 45 a8             	lea    -0x58(%ebp),%eax
    3431:	50                   	push   %eax
    3432:	68 a8 4c 00 00       	push   $0x4ca8
    3437:	6a 01                	push   $0x1
    3439:	e8 d2 05 00 00       	call   3a10 <printf>
    int fd = open(name, O_CREATE|O_RDWR);
    343e:	58                   	pop    %eax
    343f:	8d 45 a8             	lea    -0x58(%ebp),%eax
    3442:	5a                   	pop    %edx
    3443:	68 02 02 00 00       	push   $0x202
    3448:	50                   	push   %eax
    3449:	e8 a5 04 00 00       	call   38f3 <open>
    if(fd < 0){
    344e:	83 c4 10             	add    $0x10,%esp
    int fd = open(name, O_CREATE|O_RDWR);
    3451:	89 c7                	mov    %eax,%edi
    if(fd < 0){
    3453:	85 c0                	test   %eax,%eax
    3455:	78 4f                	js     34a6 <fsfull+0x106>
    int total = 0;
    3457:	31 db                	xor    %ebx,%ebx
    3459:	eb 07                	jmp    3462 <fsfull+0xc2>
    345b:	8d 74 26 00          	lea    0x0(%esi,%eiz,1),%esi
    345f:	90                   	nop
      total += cc;
    3460:	01 c3                	add    %eax,%ebx
      int cc = write(fd, buf, 512);
    3462:	83 ec 04             	sub    $0x4,%esp
    3465:	68 00 02 00 00       	push   $0x200
    346a:	68 60 85 00 00       	push   $0x8560
    346f:	57                   	push   %edi
    3470:	e8 5e 04 00 00       	call   38d3 <write>
      if(cc < 512)
    3475:	83 c4 10             	add    $0x10,%esp
    3478:	3d ff 01 00 00       	cmp    $0x1ff,%eax
    347d:	7f e1                	jg     3460 <fsfull+0xc0>
    printf(1, "wrote %d bytes\n", total);
    347f:	83 ec 04             	sub    $0x4,%esp
    3482:	53                   	push   %ebx
    3483:	68 c4 4c 00 00       	push   $0x4cc4
    3488:	6a 01                	push   $0x1
    348a:	e8 81 05 00 00       	call   3a10 <printf>
    close(fd);
    348f:	89 3c 24             	mov    %edi,(%esp)
    3492:	e8 44 04 00 00       	call   38db <close>
    if(total == 0)
    3497:	83 c4 10             	add    $0x10,%esp
    349a:	85 db                	test   %ebx,%ebx
    349c:	74 1e                	je     34bc <fsfull+0x11c>
  for(nfiles = 0; ; nfiles++){
    349e:	83 c6 01             	add    $0x1,%esi
    34a1:	e9 1a ff ff ff       	jmp    33c0 <fsfull+0x20>
      printf(1, "open %s failed\n", name);
    34a6:	83 ec 04             	sub    $0x4,%esp
    34a9:	8d 45 a8             	lea    -0x58(%ebp),%eax
    34ac:	50                   	push   %eax
    34ad:	68 b4 4c 00 00       	push   $0x4cb4
    34b2:	6a 01                	push   $0x1
    34b4:	e8 57 05 00 00       	call   3a10 <printf>
      break;
    34b9:	83 c4 10             	add    $0x10,%esp
    name[1] = '0' + nfiles / 1000;
    34bc:	bf d3 4d 62 10       	mov    $0x10624dd3,%edi
    name[2] = '0' + (nfiles % 1000) / 100;
    34c1:	bb 1f 85 eb 51       	mov    $0x51eb851f,%ebx
    34c6:	8d b4 26 00 00 00 00 	lea    0x0(%esi,%eiz,1),%esi
    34cd:	8d 76 00             	lea    0x0(%esi),%esi
    name[1] = '0' + nfiles / 1000;
    34d0:	89 f0                	mov    %esi,%eax
    unlink(name);
    34d2:	83 ec 0c             	sub    $0xc,%esp
    name[0] = 'f';
    34d5:	c6 45 a8 66          	movb   $0x66,-0x58(%ebp)
    name[1] = '0' + nfiles / 1000;
    34d9:	f7 e7                	mul    %edi
    name[5] = '\0';
    34db:	c6 45 ad 00          	movb   $0x0,-0x53(%ebp)
    name[1] = '0' + nfiles / 1000;
    34df:	c1 ea 06             	shr    $0x6,%edx
    34e2:	8d 42 30             	lea    0x30(%edx),%eax
    34e5:	88 45 a9             	mov    %al,-0x57(%ebp)
    name[2] = '0' + (nfiles % 1000) / 100;
    34e8:	69 c2 e8 03 00 00    	imul   $0x3e8,%edx,%eax
    34ee:	89 f2                	mov    %esi,%edx
    34f0:	29 c2                	sub    %eax,%edx
    34f2:	89 d0                	mov    %edx,%eax
    34f4:	f7 e3                	mul    %ebx
    name[3] = '0' + (nfiles % 100) / 10;
    34f6:	89 f0                	mov    %esi,%eax
    name[2] = '0' + (nfiles % 1000) / 100;
    34f8:	c1 ea 05             	shr    $0x5,%edx
    34fb:	83 c2 30             	add    $0x30,%edx
    34fe:	88 55 aa             	mov    %dl,-0x56(%ebp)
    name[3] = '0' + (nfiles % 100) / 10;
    3501:	f7 e3                	mul    %ebx
    3503:	c1 ea 05             	shr    $0x5,%edx
    3506:	6b ca 64             	imul   $0x64,%edx,%ecx
    3509:	89 f2                	mov    %esi,%edx
    350b:	29 ca                	sub    %ecx,%edx
    350d:	b9 cd cc cc cc       	mov    $0xcccccccd,%ecx
    3512:	89 d0                	mov    %edx,%eax
    3514:	f7 e1                	mul    %ecx
    name[4] = '0' + (nfiles % 10);
    3516:	89 f0                	mov    %esi,%eax
    name[3] = '0' + (nfiles % 100) / 10;
    3518:	c1 ea 03             	shr    $0x3,%edx
    351b:	83 c2 30             	add    $0x30,%edx
    351e:	88 55 ab             	mov    %dl,-0x55(%ebp)
    name[4] = '0' + (nfiles % 10);
    3521:	f7 e1                	mul    %ecx
    3523:	89 f0                	mov    %esi,%eax
    nfiles--;
    3525:	83 ee 01             	sub    $0x1,%esi
    name[4] = '0' + (nfiles % 10);
    3528:	c1 ea 03             	shr    $0x3,%edx
    352b:	8d 14 92             	lea    (%edx,%edx,4),%edx
    352e:	01 d2                	add    %edx,%edx
    3530:	29 d0                	sub    %edx,%eax
    3532:	83 c0 30             	add    $0x30,%eax
    3535:	88 45 ac             	mov    %al,-0x54(%ebp)
    unlink(name);
    3538:	8d 45 a8             	lea    -0x58(%ebp),%eax
    353b:	50                   	push   %eax
    353c:	e8 c2 03 00 00       	call   3903 <unlink>
  while(nfiles >= 0){
    3541:	83 c4 10             	add    $0x10,%esp
    3544:	83 fe ff             	cmp    $0xffffffff,%esi
    3547:	75 87                	jne    34d0 <fsfull+0x130>
  printf(1, "fsfull test finished\n");
    3549:	83 ec 08             	sub    $0x8,%esp
    354c:	68 d4 4c 00 00       	push   $0x4cd4
    3551:	6a 01                	push   $0x1
    3553:	e8 b8 04 00 00       	call   3a10 <printf>
}
    3558:	83 c4 10             	add    $0x10,%esp
    355b:	8d 65 f4             	lea    -0xc(%ebp),%esp
    355e:	5b                   	pop    %ebx
    355f:	5e                   	pop    %esi
    3560:	5f                   	pop    %edi
    3561:	5d                   	pop    %ebp
    3562:	c3                   	ret
    3563:	8d b4 26 00 00 00 00 	lea    0x0(%esi,%eiz,1),%esi
    356a:	8d b6 00 00 00 00    	lea    0x0(%esi),%esi

00003570 <uio>:
{
    3570:	55                   	push   %ebp
    3571:	89 e5                	mov    %esp,%ebp
    3573:	83 ec 10             	sub    $0x10,%esp
  printf(1, "uio test\n");
    3576:	68 ea 4c 00 00       	push   $0x4cea
    357b:	6a 01                	push   $0x1
    357d:	e8 8e 04 00 00       	call   3a10 <printf>
  pid = fork();
    3582:	e8 24 03 00 00       	call   38ab <fork>
  if(pid == 0){
    3587:	83 c4 10             	add    $0x10,%esp
    358a:	85 c0                	test   %eax,%eax
    358c:	74 1b                	je     35a9 <uio+0x39>
  } else if(pid < 0){
    358e:	78 3d                	js     35cd <uio+0x5d>
  wait();
    3590:	e8 26 03 00 00       	call   38bb <wait>
  printf(1, "uio test done\n");
    3595:	83 ec 08             	sub    $0x8,%esp
    3598:	68 f4 4c 00 00       	push   $0x4cf4
    359d:	6a 01                	push   $0x1
    359f:	e8 6c 04 00 00       	call   3a10 <printf>
}
    35a4:	83 c4 10             	add    $0x10,%esp
    35a7:	c9                   	leave
    35a8:	c3                   	ret
    asm volatile("outb %0,%1"::"a"(val), "d" (port));
    35a9:	b8 09 00 00 00       	mov    $0x9,%eax
    35ae:	ba 70 00 00 00       	mov    $0x70,%edx
    35b3:	ee                   	out    %al,(%dx)
    asm volatile("inb %1,%0" : "=a" (val) : "d" (port));
    35b4:	ba 71 00 00 00       	mov    $0x71,%edx
    35b9:	ec                   	in     (%dx),%al
    printf(1, "uio: uio succeeded; test FAILED\n");
    35ba:	52                   	push   %edx
    35bb:	52                   	push   %edx
    35bc:	68 80 54 00 00       	push   $0x5480
    35c1:	6a 01                	push   $0x1
    35c3:	e8 48 04 00 00       	call   3a10 <printf>
    exit();
    35c8:	e8 e6 02 00 00       	call   38b3 <exit>
    printf (1, "fork failed\n");
    35cd:	50                   	push   %eax
    35ce:	50                   	push   %eax
    35cf:	68 79 4c 00 00       	push   $0x4c79
    35d4:	6a 01                	push   $0x1
    35d6:	e8 35 04 00 00       	call   3a10 <printf>
    exit();
    35db:	e8 d3 02 00 00       	call   38b3 <exit>

000035e0 <argptest>:
{
    35e0:	55                   	push   %ebp
    35e1:	89 e5                	mov    %esp,%ebp
    35e3:	53                   	push   %ebx
    35e4:	83 ec 0c             	sub    $0xc,%esp
  fd = open("init", O_RDONLY);
    35e7:	6a 00                	push   $0x0
    35e9:	68 03 4d 00 00       	push   $0x4d03
    35ee:	e8 00 03 00 00       	call   38f3 <open>
  if (fd < 0) {
    35f3:	83 c4 10             	add    $0x10,%esp
    35f6:	85 c0                	test   %eax,%eax
    35f8:	78 39                	js     3633 <argptest+0x53>
  read(fd, sbrk(0) - 1, -1);
    35fa:	83 ec 0c             	sub    $0xc,%esp
    35fd:	89 c3                	mov    %eax,%ebx
    35ff:	6a 00                	push   $0x0
    3601:	e8 35 03 00 00       	call   393b <sbrk>
    3606:	83 c4 0c             	add    $0xc,%esp
    3609:	83 e8 01             	sub    $0x1,%eax
    360c:	6a ff                	push   $0xffffffff
    360e:	50                   	push   %eax
    360f:	53                   	push   %ebx
    3610:	e8 b6 02 00 00       	call   38cb <read>
  close(fd);
    3615:	89 1c 24             	mov    %ebx,(%esp)
    3618:	e8 be 02 00 00       	call   38db <close>
  printf(1, "arg test passed\n");
    361d:	58                   	pop    %eax
    361e:	5a                   	pop    %edx
    361f:	68 15 4d 00 00       	push   $0x4d15
    3624:	6a 01                	push   $0x1
    3626:	e8 e5 03 00 00       	call   3a10 <printf>
}
    362b:	8b 5d fc             	mov    -0x4(%ebp),%ebx
    362e:	83 c4 10             	add    $0x10,%esp
    3631:	c9                   	leave
    3632:	c3                   	ret
    printf(2, "open failed\n");
    3633:	51                   	push   %ecx
    3634:	51                   	push   %ecx
    3635:	68 08 4d 00 00       	push   $0x4d08
    363a:	6a 02                	push   $0x2
    363c:	e8 cf 03 00 00       	call   3a10 <printf>
    exit();
    3641:	e8 6d 02 00 00       	call   38b3 <exit>
    3646:	8d b4 26 00 00 00 00 	lea    0x0(%esi,%eiz,1),%esi
    364d:	8d 76 00             	lea    0x0(%esi),%esi

00003650 <rand>:
  randstate = randstate * 1664525 + 1013904223;
    3650:	69 05 14 5e 00 00 0d 	imul   $0x19660d,0x5e14,%eax
    3657:	66 19 00 
    365a:	05 5f f3 6e 3c       	add    $0x3c6ef35f,%eax
    365f:	a3 14 5e 00 00       	mov    %eax,0x5e14
}
    3664:	c3                   	ret
    3665:	66 90                	xchg   %ax,%ax
    3667:	66 90                	xchg   %ax,%ax
    3669:	66 90                	xchg   %ax,%ax
    366b:	66 90                	xchg   %ax,%ax
    366d:	66 90                	xchg   %ax,%ax
    366f:	90                   	nop

00003670 <strcpy>:
#include "user.h"
#include "x86.h"

char*
strcpy(char *s, char *t)
{
    3670:	55                   	push   %ebp
  char *os;

  os = s;
  while((*s++ = *t++) != 0)
    3671:	31 c0                	xor    %eax,%eax
{
    3673:	89 e5                	mov    %esp,%ebp
    3675:	53                   	push   %ebx
    3676:	8b 4d 08             	mov    0x8(%ebp),%ecx
    3679:	8b 5d 0c             	mov    0xc(%ebp),%ebx
    367c:	8d 74 26 00          	lea    0x0(%esi,%eiz,1),%esi
  while((*s++ = *t++) != 0)
    3680:	0f b6 14 03          	movzbl (%ebx,%eax,1),%edx
    3684:	88 14 01             	mov    %dl,(%ecx,%eax,1)
    3687:	83 c0 01             	add    $0x1,%eax
    368a:	84 d2                	test   %dl,%dl
    368c:	75 f2                	jne    3680 <strcpy+0x10>
    ;
  return os;
}
    368e:	8b 5d fc             	mov    -0x4(%ebp),%ebx
    3691:	89 c8                	mov    %ecx,%eax
    3693:	c9                   	leave
    3694:	c3                   	ret
    3695:	8d b4 26 00 00 00 00 	lea    0x0(%esi,%eiz,1),%esi
    369c:	8d 74 26 00          	lea    0x0(%esi,%eiz,1),%esi

000036a0 <strcmp>:

int
strcmp(const char *p, const char *q)
{
    36a0:	55                   	push   %ebp
    36a1:	89 e5                	mov    %esp,%ebp
    36a3:	53                   	push   %ebx
    36a4:	8b 55 08             	mov    0x8(%ebp),%edx
    36a7:	8b 4d 0c             	mov    0xc(%ebp),%ecx
  while(*p && *p == *q)
    36aa:	0f b6 02             	movzbl (%edx),%eax
    36ad:	84 c0                	test   %al,%al
    36af:	75 17                	jne    36c8 <strcmp+0x28>
    36b1:	eb 3a                	jmp    36ed <strcmp+0x4d>
    36b3:	8d 74 26 00          	lea    0x0(%esi,%eiz,1),%esi
    36b7:	90                   	nop
    36b8:	0f b6 42 01          	movzbl 0x1(%edx),%eax
    p++, q++;
    36bc:	83 c2 01             	add    $0x1,%edx
    36bf:	8d 59 01             	lea    0x1(%ecx),%ebx
  while(*p && *p == *q)
    36c2:	84 c0                	test   %al,%al
    36c4:	74 1a                	je     36e0 <strcmp+0x40>
    p++, q++;
    36c6:	89 d9                	mov    %ebx,%ecx
  while(*p && *p == *q)
    36c8:	0f b6 19             	movzbl (%ecx),%ebx
    36cb:	38 c3                	cmp    %al,%bl
    36cd:	74 e9                	je     36b8 <strcmp+0x18>
  return (uchar)*p - (uchar)*q;
    36cf:	29 d8                	sub    %ebx,%eax
}
    36d1:	8b 5d fc             	mov    -0x4(%ebp),%ebx
    36d4:	c9                   	leave
    36d5:	c3                   	ret
    36d6:	8d b4 26 00 00 00 00 	lea    0x0(%esi,%eiz,1),%esi
    36dd:	8d 76 00             	lea    0x0(%esi),%esi
  return (uchar)*p - (uchar)*q;
    36e0:	0f b6 59 01          	movzbl 0x1(%ecx),%ebx
    36e4:	31 c0                	xor    %eax,%eax
    36e6:	29 d8                	sub    %ebx,%eax
}
    36e8:	8b 5d fc             	mov    -0x4(%ebp),%ebx
    36eb:	c9                   	leave
    36ec:	c3                   	ret
  return (uchar)*p - (uchar)*q;
    36ed:	0f b6 19             	movzbl (%ecx),%ebx
    36f0:	31 c0                	xor    %eax,%eax
    36f2:	eb db                	jmp    36cf <strcmp+0x2f>
    36f4:	8d b4 26 00 00 00 00 	lea    0x0(%esi,%eiz,1),%esi
    36fb:	8d 74 26 00          	lea    0x0(%esi,%eiz,1),%esi
    36ff:	90                   	nop

00003700 <strlen>:

uint
strlen(char *s)
{
    3700:	55                   	push   %ebp
    3701:	89 e5                	mov    %esp,%ebp
    3703:	8b 55 08             	mov    0x8(%ebp),%edx
  int n;

  for(n = 0; s[n]; n++)
    3706:	80 3a 00             	cmpb   $0x0,(%edx)
    3709:	74 15                	je     3720 <strlen+0x20>
    370b:	31 c0                	xor    %eax,%eax
    370d:	8d 76 00             	lea    0x0(%esi),%esi
    3710:	83 c0 01             	add    $0x1,%eax
    3713:	80 3c 02 00          	cmpb   $0x0,(%edx,%eax,1)
    3717:	89 c1                	mov    %eax,%ecx
    3719:	75 f5                	jne    3710 <strlen+0x10>
    ;
  return n;
}
    371b:	89 c8                	mov    %ecx,%eax
    371d:	5d                   	pop    %ebp
    371e:	c3                   	ret
    371f:	90                   	nop
  for(n = 0; s[n]; n++)
    3720:	31 c9                	xor    %ecx,%ecx
}
    3722:	5d                   	pop    %ebp
    3723:	89 c8                	mov    %ecx,%eax
    3725:	c3                   	ret
    3726:	8d b4 26 00 00 00 00 	lea    0x0(%esi,%eiz,1),%esi
    372d:	8d 76 00             	lea    0x0(%esi),%esi

00003730 <memset>:

void*
memset(void *dst, int c, uint n)
{
    3730:	55                   	push   %ebp
    3731:	89 e5                	mov    %esp,%ebp
    3733:	57                   	push   %edi
    3734:	8b 55 08             	mov    0x8(%ebp),%edx
}

static inline void
stosb(void *addr, int data, int cnt)
{
  asm volatile("cld; rep stosb" :
    3737:	8b 4d 10             	mov    0x10(%ebp),%ecx
    373a:	8b 45 0c             	mov    0xc(%ebp),%eax
    373d:	89 d7                	mov    %edx,%edi
    373f:	fc                   	cld
    3740:	f3 aa                	rep stos %al,%es:(%edi)
  stosb(dst, c, n);
  return dst;
}
    3742:	8b 7d fc             	mov    -0x4(%ebp),%edi
    3745:	89 d0                	mov    %edx,%eax
    3747:	c9                   	leave
    3748:	c3                   	ret
    3749:	8d b4 26 00 00 00 00 	lea    0x0(%esi,%eiz,1),%esi

00003750 <strchr>:

char*
strchr(const char *s, char c)
{
    3750:	55                   	push   %ebp
    3751:	89 e5                	mov    %esp,%ebp
    3753:	8b 45 08             	mov    0x8(%ebp),%eax
    3756:	0f b6 4d 0c          	movzbl 0xc(%ebp),%ecx
  for(; *s; s++)
    375a:	0f b6 10             	movzbl (%eax),%edx
    375d:	84 d2                	test   %dl,%dl
    375f:	75 12                	jne    3773 <strchr+0x23>
    3761:	eb 1d                	jmp    3780 <strchr+0x30>
    3763:	8d 74 26 00          	lea    0x0(%esi,%eiz,1),%esi
    3767:	90                   	nop
    3768:	0f b6 50 01          	movzbl 0x1(%eax),%edx
    376c:	83 c0 01             	add    $0x1,%eax
    376f:	84 d2                	test   %dl,%dl
    3771:	74 0d                	je     3780 <strchr+0x30>
    if(*s == c)
    3773:	38 d1                	cmp    %dl,%cl
    3775:	75 f1                	jne    3768 <strchr+0x18>
      return (char*)s;
  return 0;
}
    3777:	5d                   	pop    %ebp
    3778:	c3                   	ret
    3779:	8d b4 26 00 00 00 00 	lea    0x0(%esi,%eiz,1),%esi
  return 0;
    3780:	31 c0                	xor    %eax,%eax
}
    3782:	5d                   	pop    %ebp
    3783:	c3                   	ret
    3784:	8d b4 26 00 00 00 00 	lea    0x0(%esi,%eiz,1),%esi
    378b:	8d 74 26 00          	lea    0x0(%esi,%eiz,1),%esi
    378f:	90                   	nop

00003790 <gets>:

char*
gets(char *buf, int max)
{
    3790:	55                   	push   %ebp
    3791:	89 e5                	mov    %esp,%ebp
    3793:	57                   	push   %edi
    3794:	56                   	push   %esi
  int i, cc;
  char c;

  for(i=0; i+1 < max; ){
    cc = read(0, &c, 1);
    3795:	8d 75 e7             	lea    -0x19(%ebp),%esi
{
    3798:	53                   	push   %ebx
  for(i=0; i+1 < max; ){
    3799:	31 db                	xor    %ebx,%ebx
{
    379b:	83 ec 1c             	sub    $0x1c,%esp
  for(i=0; i+1 < max; ){
    379e:	eb 27                	jmp    37c7 <gets+0x37>
    cc = read(0, &c, 1);
    37a0:	83 ec 04             	sub    $0x4,%esp
    37a3:	6a 01                	push   $0x1
    37a5:	56                   	push   %esi
    37a6:	6a 00                	push   $0x0
    37a8:	e8 1e 01 00 00       	call   38cb <read>
    if(cc < 1)
    37ad:	83 c4 10             	add    $0x10,%esp
    37b0:	85 c0                	test   %eax,%eax
    37b2:	7e 1d                	jle    37d1 <gets+0x41>
      break;
    buf[i++] = c;
    37b4:	0f b6 45 e7          	movzbl -0x19(%ebp),%eax
    37b8:	8b 55 08             	mov    0x8(%ebp),%edx
    37bb:	88 44 1a ff          	mov    %al,-0x1(%edx,%ebx,1)
    if(c == '\n' || c == '\r')
    37bf:	3c 0a                	cmp    $0xa,%al
    37c1:	74 10                	je     37d3 <gets+0x43>
    37c3:	3c 0d                	cmp    $0xd,%al
    37c5:	74 0c                	je     37d3 <gets+0x43>
  for(i=0; i+1 < max; ){
    37c7:	89 df                	mov    %ebx,%edi
    37c9:	83 c3 01             	add    $0x1,%ebx
    37cc:	3b 5d 0c             	cmp    0xc(%ebp),%ebx
    37cf:	7c cf                	jl     37a0 <gets+0x10>
    37d1:	89 fb                	mov    %edi,%ebx
      break;
  }
  buf[i] = '\0';
    37d3:	8b 45 08             	mov    0x8(%ebp),%eax
    37d6:	c6 04 18 00          	movb   $0x0,(%eax,%ebx,1)
  return buf;
}
    37da:	8d 65 f4             	lea    -0xc(%ebp),%esp
    37dd:	5b                   	pop    %ebx
    37de:	5e                   	pop    %esi
    37df:	5f                   	pop    %edi
    37e0:	5d                   	pop    %ebp
    37e1:	c3                   	ret
    37e2:	8d b4 26 00 00 00 00 	lea    0x0(%esi,%eiz,1),%esi
    37e9:	8d b4 26 00 00 00 00 	lea    0x0(%esi,%eiz,1),%esi

000037f0 <stat>:

int
stat(char *n, struct stat *st)
{
    37f0:	55                   	push   %ebp
    37f1:	89 e5                	mov    %esp,%ebp
    37f3:	56                   	push   %esi
    37f4:	53                   	push   %ebx
  int fd;
  int r;

  fd = open(n, O_RDONLY);
    37f5:	83 ec 08             	sub    $0x8,%esp
    37f8:	6a 00                	push   $0x0
    37fa:	ff 75 08             	push   0x8(%ebp)
    37fd:	e8 f1 00 00 00       	call   38f3 <open>
  if(fd < 0)
    3802:	83 c4 10             	add    $0x10,%esp
    3805:	85 c0                	test   %eax,%eax
    3807:	78 27                	js     3830 <stat+0x40>
    return -1;
  r = fstat(fd, st);
    3809:	83 ec 08             	sub    $0x8,%esp
    380c:	ff 75 0c             	push   0xc(%ebp)
    380f:	89 c3                	mov    %eax,%ebx
    3811:	50                   	push   %eax
    3812:	e8 f4 00 00 00       	call   390b <fstat>
  close(fd);
    3817:	89 1c 24             	mov    %ebx,(%esp)
  r = fstat(fd, st);
    381a:	89 c6                	mov    %eax,%esi
  close(fd);
    381c:	e8 ba 00 00 00       	call   38db <close>
  return r;
    3821:	83 c4 10             	add    $0x10,%esp
}
    3824:	8d 65 f8             	lea    -0x8(%ebp),%esp
    3827:	89 f0                	mov    %esi,%eax
    3829:	5b                   	pop    %ebx
    382a:	5e                   	pop    %esi
    382b:	5d                   	pop    %ebp
    382c:	c3                   	ret
    382d:	8d 76 00             	lea    0x0(%esi),%esi
    return -1;
    3830:	be ff ff ff ff       	mov    $0xffffffff,%esi
    3835:	eb ed                	jmp    3824 <stat+0x34>
    3837:	8d b4 26 00 00 00 00 	lea    0x0(%esi,%eiz,1),%esi
    383e:	66 90                	xchg   %ax,%ax

00003840 <atoi>:

int
atoi(const char *s)
{
    3840:	55                   	push   %ebp
    3841:	89 e5                	mov    %esp,%ebp
    3843:	53                   	push   %ebx
    3844:	8b 55 08             	mov    0x8(%ebp),%edx
  int n;

  n = 0;
  while('0' <= *s && *s <= '9')
    3847:	0f be 02             	movsbl (%edx),%eax
    384a:	8d 48 d0             	lea    -0x30(%eax),%ecx
    384d:	80 f9 09             	cmp    $0x9,%cl
  n = 0;
    3850:	b9 00 00 00 00       	mov    $0x0,%ecx
  while('0' <= *s && *s <= '9')
    3855:	77 1e                	ja     3875 <atoi+0x35>
    3857:	8d b4 26 00 00 00 00 	lea    0x0(%esi,%eiz,1),%esi
    385e:	66 90                	xchg   %ax,%ax
    n = n*10 + *s++ - '0';
    3860:	83 c2 01             	add    $0x1,%edx
    3863:	8d 0c 89             	lea    (%ecx,%ecx,4),%ecx
    3866:	8d 4c 48 d0          	lea    -0x30(%eax,%ecx,2),%ecx
  while('0' <= *s && *s <= '9')
    386a:	0f be 02             	movsbl (%edx),%eax
    386d:	8d 58 d0             	lea    -0x30(%eax),%ebx
    3870:	80 fb 09             	cmp    $0x9,%bl
    3873:	76 eb                	jbe    3860 <atoi+0x20>
  return n;
}
    3875:	8b 5d fc             	mov    -0x4(%ebp),%ebx
    3878:	89 c8                	mov    %ecx,%eax
    387a:	c9                   	leave
    387b:	c3                   	ret
    387c:	8d 74 26 00          	lea    0x0(%esi,%eiz,1),%esi

00003880 <memmove>:

void*
memmove(void *vdst, void *vsrc, int n)
{
    3880:	55                   	push   %ebp
    3881:	89 e5                	mov    %esp,%ebp
    3883:	57                   	push   %edi
    3884:	56                   	push   %esi
    3885:	8b 45 10             	mov    0x10(%ebp),%eax
    3888:	8b 55 08             	mov    0x8(%ebp),%edx
    388b:	8b 75 0c             	mov    0xc(%ebp),%esi
  char *dst, *src;

  dst = vdst;
  src = vsrc;
  while(n-- > 0)
    388e:	85 c0                	test   %eax,%eax
    3890:	7e 13                	jle    38a5 <memmove+0x25>
    3892:	01 d0                	add    %edx,%eax
  dst = vdst;
    3894:	89 d7                	mov    %edx,%edi
    3896:	8d b4 26 00 00 00 00 	lea    0x0(%esi,%eiz,1),%esi
    389d:	8d 76 00             	lea    0x0(%esi),%esi
    *dst++ = *src++;
    38a0:	a4                   	movsb  %ds:(%esi),%es:(%edi)
  while(n-- > 0)
    38a1:	39 f8                	cmp    %edi,%eax
    38a3:	75 fb                	jne    38a0 <memmove+0x20>
  return vdst;
}
    38a5:	5e                   	pop    %esi
    38a6:	89 d0                	mov    %edx,%eax
    38a8:	5f                   	pop    %edi
    38a9:	5d                   	pop    %ebp
    38aa:	c3                   	ret

000038ab <fork>:
  name: \
    movl $SYS_ ## name, %eax; \
    int $T_SYSCALL; \
    ret

SYSCALL(fork)
    38ab:	b8 01 00 00 00       	mov    $0x1,%eax
    38b0:	cd 40                	int    $0x40
    38b2:	c3                   	ret

000038b3 <exit>:
SYSCALL(exit)
    38b3:	b8 02 00 00 00       	mov    $0x2,%eax
    38b8:	cd 40                	int    $0x40
    38ba:	c3                   	ret

000038bb <wait>:
SYSCALL(wait)
    38bb:	b8 03 00 00 00       	mov    $0x3,%eax
    38c0:	cd 40                	int    $0x40
    38c2:	c3                   	ret

000038c3 <pipe>:
SYSCALL(pipe)
    38c3:	b8 04 00 00 00       	mov    $0x4,%eax
    38c8:	cd 40                	int    $0x40
    38ca:	c3                   	ret

000038cb <read>:
SYSCALL(read)
    38cb:	b8 05 00 00 00       	mov    $0x5,%eax
    38d0:	cd 40                	int    $0x40
    38d2:	c3                   	ret

000038d3 <write>:
SYSCALL(write)
    38d3:	b8 10 00 00 00       	mov    $0x10,%eax
    38d8:	cd 40                	int    $0x40
    38da:	c3                   	ret

000038db <close>:
SYSCALL(close)
    38db:	b8 15 00 00 00       	mov    $0x15,%eax
    38e0:	cd 40                	int    $0x40
    38e2:	c3                   	ret

000038e3 <kill>:
SYSCALL(kill)
    38e3:	b8 06 00 00 00       	mov    $0x6,%eax
    38e8:	cd 40                	int    $0x40
    38ea:	c3                   	ret

000038eb <exec>:
SYSCALL(exec)
    38eb:	b8 07 00 00 00       	mov    $0x7,%eax
    38f0:	cd 40                	int    $0x40
    38f2:	c3                   	ret

000038f3 <open>:
SYSCALL(open)
    38f3:	b8 0f 00 00 00       	mov    $0xf,%eax
    38f8:	cd 40                	int    $0x40
    38fa:	c3                   	ret

000038fb <mknod>:
SYSCALL(mknod)
    38fb:	b8 11 00 00 00       	mov    $0x11,%eax
    3900:	cd 40                	int    $0x40
    3902:	c3                   	ret

00003903 <unlink>:
SYSCALL(unlink)
    3903:	b8 12 00 00 00       	mov    $0x12,%eax
    3908:	cd 40                	int    $0x40
    390a:	c3                   	ret

0000390b <fstat>:
SYSCALL(fstat)
    390b:	b8 08 00 00 00       	mov    $0x8,%eax
    3910:	cd 40                	int    $0x40
    3912:	c3                   	ret

00003913 <link>:
SYSCALL(link)
    3913:	b8 13 00 00 00       	mov    $0x13,%eax
    3918:	cd 40                	int    $0x40
    391a:	c3                   	ret

0000391b <mkdir>:
SYSCALL(mkdir)
    391b:	b8 14 00 00 00       	mov    $0x14,%eax
    3920:	cd 40                	int    $0x40
    3922:	c3                   	ret

00003923 <chdir>:
SYSCALL(chdir)
    3923:	b8 09 00 00 00       	mov    $0x9,%eax
    3928:	cd 40                	int    $0x40
    392a:	c3                   	ret

0000392b <dup>:
SYSCALL(dup)
    392b:	b8 0a 00 00 00       	mov    $0xa,%eax
    3930:	cd 40                	int    $0x40
    3932:	c3                   	ret

00003933 <getpid>:
SYSCALL(getpid)
    3933:	b8 0b 00 00 00       	mov    $0xb,%eax
    3938:	cd 40                	int    $0x40
    393a:	c3                   	ret

0000393b <sbrk>:
SYSCALL(sbrk)
    393b:	b8 0c 00 00 00       	mov    $0xc,%eax
    3940:	cd 40                	int    $0x40
    3942:	c3                   	ret

00003943 <sleep>:
SYSCALL(sleep)
    3943:	b8 0d 00 00 00       	mov    $0xd,%eax
    3948:	cd 40                	int    $0x40
    394a:	c3                   	ret

0000394b <uptime>:
SYSCALL(uptime)
    394b:	b8 0e 00 00 00       	mov    $0xe,%eax
    3950:	cd 40                	int    $0x40
    3952:	c3                   	ret

00003953 <shutdown>:
SYSCALL(shutdown)
    3953:	b8 16 00 00 00       	mov    $0x16,%eax
    3958:	cd 40                	int    $0x40
    395a:	c3                   	ret

0000395b <cps>:
SYSCALL(cps)
    395b:	b8 17 00 00 00       	mov    $0x17,%eax
    3960:	cd 40                	int    $0x40
    3962:	c3                   	ret

00003963 <chpr>:
SYSCALL(chpr)
    3963:	b8 18 00 00 00       	mov    $0x18,%eax
    3968:	cd 40                	int    $0x40
    396a:	c3                   	ret
    396b:	66 90                	xchg   %ax,%ax
    396d:	66 90                	xchg   %ax,%ax
    396f:	90                   	nop

00003970 <printint>:
  write(fd, &c, 1);
}

static void
printint(int fd, int xx, int base, int sgn)
{
    3970:	55                   	push   %ebp
    3971:	89 e5                	mov    %esp,%ebp
    3973:	57                   	push   %edi
    3974:	56                   	push   %esi
    3975:	53                   	push   %ebx
    3976:	89 cb                	mov    %ecx,%ebx
  uint x;

  neg = 0;
  if(sgn && xx < 0){
    neg = 1;
    x = -xx;
    3978:	89 d1                	mov    %edx,%ecx
{
    397a:	83 ec 3c             	sub    $0x3c,%esp
    397d:	89 45 c0             	mov    %eax,-0x40(%ebp)
  if(sgn && xx < 0){
    3980:	85 d2                	test   %edx,%edx
    3982:	0f 89 80 00 00 00    	jns    3a08 <printint+0x98>
    3988:	f6 45 08 01          	testb  $0x1,0x8(%ebp)
    398c:	74 7a                	je     3a08 <printint+0x98>
    x = -xx;
    398e:	f7 d9                	neg    %ecx
    neg = 1;
    3990:	b8 01 00 00 00       	mov    $0x1,%eax
  } else {
    x = xx;
  }

  i = 0;
    3995:	89 45 c4             	mov    %eax,-0x3c(%ebp)
    3998:	31 f6                	xor    %esi,%esi
    399a:	8d b6 00 00 00 00    	lea    0x0(%esi),%esi
  do{
    buf[i++] = digits[x % base];
    39a0:	89 c8                	mov    %ecx,%eax
    39a2:	31 d2                	xor    %edx,%edx
    39a4:	89 f7                	mov    %esi,%edi
    39a6:	f7 f3                	div    %ebx
    39a8:	8d 76 01             	lea    0x1(%esi),%esi
    39ab:	0f b6 92 30 55 00 00 	movzbl 0x5530(%edx),%edx
    39b2:	88 54 35 d7          	mov    %dl,-0x29(%ebp,%esi,1)
  }while((x /= base) != 0);
    39b6:	89 ca                	mov    %ecx,%edx
    39b8:	89 c1                	mov    %eax,%ecx
    39ba:	39 da                	cmp    %ebx,%edx
    39bc:	73 e2                	jae    39a0 <printint+0x30>
  if(neg)
    39be:	8b 45 c4             	mov    -0x3c(%ebp),%eax
    39c1:	85 c0                	test   %eax,%eax
    39c3:	74 07                	je     39cc <printint+0x5c>
    buf[i++] = '-';
    39c5:	c6 44 35 d8 2d       	movb   $0x2d,-0x28(%ebp,%esi,1)
    buf[i++] = digits[x % base];
    39ca:	89 f7                	mov    %esi,%edi
    39cc:	8d 5d d8             	lea    -0x28(%ebp),%ebx
    39cf:	8b 75 c0             	mov    -0x40(%ebp),%esi
    39d2:	01 df                	add    %ebx,%edi
    39d4:	8d 74 26 00          	lea    0x0(%esi,%eiz,1),%esi

  while(--i >= 0)
    putc(fd, buf[i]);
    39d8:	0f b6 07             	movzbl (%edi),%eax
  write(fd, &c, 1);
    39db:	83 ec 04             	sub    $0x4,%esp
    39de:	88 45 d7             	mov    %al,-0x29(%ebp)
    39e1:	8d 45 d7             	lea    -0x29(%ebp),%eax
    39e4:	6a 01                	push   $0x1
    39e6:	50                   	push   %eax
    39e7:	56                   	push   %esi
    39e8:	e8 e6 fe ff ff       	call   38d3 <write>
  while(--i >= 0)
    39ed:	89 f8                	mov    %edi,%eax
    39ef:	83 c4 10             	add    $0x10,%esp
    39f2:	83 ef 01             	sub    $0x1,%edi
    39f5:	39 d8                	cmp    %ebx,%eax
    39f7:	75 df                	jne    39d8 <printint+0x68>
}
    39f9:	8d 65 f4             	lea    -0xc(%ebp),%esp
    39fc:	5b                   	pop    %ebx
    39fd:	5e                   	pop    %esi
    39fe:	5f                   	pop    %edi
    39ff:	5d                   	pop    %ebp
    3a00:	c3                   	ret
    3a01:	8d b4 26 00 00 00 00 	lea    0x0(%esi,%eiz,1),%esi
  neg = 0;
    3a08:	31 c0                	xor    %eax,%eax
    3a0a:	eb 89                	jmp    3995 <printint+0x25>
    3a0c:	8d 74 26 00          	lea    0x0(%esi,%eiz,1),%esi

00003a10 <printf>:

// Print to the given fd. Only understands %d, %x, %p, %s.
void
printf(int fd, char *fmt, ...)
{
    3a10:	55                   	push   %ebp
    3a11:	89 e5                	mov    %esp,%ebp
    3a13:	57                   	push   %edi
    3a14:	56                   	push   %esi
    3a15:	53                   	push   %ebx
    3a16:	83 ec 2c             	sub    $0x2c,%esp
  int c, i, state;
  uint *ap;

  state = 0;
  ap = (uint*)(void*)&fmt + 1;
  for(i = 0; fmt[i]; i++){
    3a19:	8b 75 0c             	mov    0xc(%ebp),%esi
{
    3a1c:	8b 7d 08             	mov    0x8(%ebp),%edi
  for(i = 0; fmt[i]; i++){
    3a1f:	0f b6 1e             	movzbl (%esi),%ebx
    3a22:	83 c6 01             	add    $0x1,%esi
    3a25:	84 db                	test   %bl,%bl
    3a27:	74 67                	je     3a90 <printf+0x80>
    3a29:	8d 4d 10             	lea    0x10(%ebp),%ecx
    3a2c:	31 d2                	xor    %edx,%edx
    3a2e:	89 4d d0             	mov    %ecx,-0x30(%ebp)
    3a31:	eb 34                	jmp    3a67 <printf+0x57>
    3a33:	8d 74 26 00          	lea    0x0(%esi,%eiz,1),%esi
    3a37:	90                   	nop
    3a38:	89 55 d4             	mov    %edx,-0x2c(%ebp)
    c = fmt[i] & 0xff;
    if(state == 0){
      if(c == '%'){
        state = '%';
    3a3b:	ba 25 00 00 00       	mov    $0x25,%edx
      if(c == '%'){
    3a40:	83 f8 25             	cmp    $0x25,%eax
    3a43:	74 18                	je     3a5d <printf+0x4d>
  write(fd, &c, 1);
    3a45:	83 ec 04             	sub    $0x4,%esp
    3a48:	8d 45 e7             	lea    -0x19(%ebp),%eax
    3a4b:	88 5d e7             	mov    %bl,-0x19(%ebp)
    3a4e:	6a 01                	push   $0x1
    3a50:	50                   	push   %eax
    3a51:	57                   	push   %edi
    3a52:	e8 7c fe ff ff       	call   38d3 <write>
    3a57:	8b 55 d4             	mov    -0x2c(%ebp),%edx
      } else {
        putc(fd, c);
    3a5a:	83 c4 10             	add    $0x10,%esp
  for(i = 0; fmt[i]; i++){
    3a5d:	0f b6 1e             	movzbl (%esi),%ebx
    3a60:	83 c6 01             	add    $0x1,%esi
    3a63:	84 db                	test   %bl,%bl
    3a65:	74 29                	je     3a90 <printf+0x80>
    c = fmt[i] & 0xff;
    3a67:	0f b6 c3             	movzbl %bl,%eax
    if(state == 0){
    3a6a:	85 d2                	test   %edx,%edx
    3a6c:	74 ca                	je     3a38 <printf+0x28>
      }
    } else if(state == '%'){
    3a6e:	83 fa 25             	cmp    $0x25,%edx
    3a71:	75 ea                	jne    3a5d <printf+0x4d>
      if(c == 'd'){
    3a73:	83 f8 25             	cmp    $0x25,%eax
    3a76:	0f 84 24 01 00 00    	je     3ba0 <printf+0x190>
    3a7c:	83 e8 63             	sub    $0x63,%eax
    3a7f:	83 f8 15             	cmp    $0x15,%eax
    3a82:	77 1c                	ja     3aa0 <printf+0x90>
    3a84:	ff 24 85 d8 54 00 00 	jmp    *0x54d8(,%eax,4)
    3a8b:	8d 74 26 00          	lea    0x0(%esi,%eiz,1),%esi
    3a8f:	90                   	nop
        putc(fd, c);
      }
      state = 0;
    }
  }
}
    3a90:	8d 65 f4             	lea    -0xc(%ebp),%esp
    3a93:	5b                   	pop    %ebx
    3a94:	5e                   	pop    %esi
    3a95:	5f                   	pop    %edi
    3a96:	5d                   	pop    %ebp
    3a97:	c3                   	ret
    3a98:	8d b4 26 00 00 00 00 	lea    0x0(%esi,%eiz,1),%esi
    3a9f:	90                   	nop
  write(fd, &c, 1);
    3aa0:	83 ec 04             	sub    $0x4,%esp
    3aa3:	8d 55 e7             	lea    -0x19(%ebp),%edx
    3aa6:	c6 45 e7 25          	movb   $0x25,-0x19(%ebp)
    3aaa:	6a 01                	push   $0x1
    3aac:	52                   	push   %edx
    3aad:	89 55 d4             	mov    %edx,-0x2c(%ebp)
    3ab0:	57                   	push   %edi
    3ab1:	e8 1d fe ff ff       	call   38d3 <write>
    3ab6:	83 c4 0c             	add    $0xc,%esp
    3ab9:	88 5d e7             	mov    %bl,-0x19(%ebp)
    3abc:	6a 01                	push   $0x1
    3abe:	8b 55 d4             	mov    -0x2c(%ebp),%edx
    3ac1:	52                   	push   %edx
    3ac2:	57                   	push   %edi
    3ac3:	e8 0b fe ff ff       	call   38d3 <write>
        putc(fd, c);
    3ac8:	83 c4 10             	add    $0x10,%esp
      state = 0;
    3acb:	31 d2                	xor    %edx,%edx
    3acd:	eb 8e                	jmp    3a5d <printf+0x4d>
    3acf:	90                   	nop
        printint(fd, *ap, 16, 0);
    3ad0:	8b 5d d0             	mov    -0x30(%ebp),%ebx
    3ad3:	83 ec 0c             	sub    $0xc,%esp
    3ad6:	b9 10 00 00 00       	mov    $0x10,%ecx
    3adb:	8b 13                	mov    (%ebx),%edx
    3add:	6a 00                	push   $0x0
    3adf:	89 f8                	mov    %edi,%eax
        ap++;
    3ae1:	83 c3 04             	add    $0x4,%ebx
        printint(fd, *ap, 16, 0);
    3ae4:	e8 87 fe ff ff       	call   3970 <printint>
        ap++;
    3ae9:	89 5d d0             	mov    %ebx,-0x30(%ebp)
    3aec:	83 c4 10             	add    $0x10,%esp
      state = 0;
    3aef:	31 d2                	xor    %edx,%edx
    3af1:	e9 67 ff ff ff       	jmp    3a5d <printf+0x4d>
    3af6:	8d b4 26 00 00 00 00 	lea    0x0(%esi,%eiz,1),%esi
    3afd:	8d 76 00             	lea    0x0(%esi),%esi
        s = (char*)*ap;
    3b00:	8b 45 d0             	mov    -0x30(%ebp),%eax
    3b03:	8b 18                	mov    (%eax),%ebx
        ap++;
    3b05:	83 c0 04             	add    $0x4,%eax
    3b08:	89 45 d0             	mov    %eax,-0x30(%ebp)
        if(s == 0)
    3b0b:	85 db                	test   %ebx,%ebx
    3b0d:	0f 84 9d 00 00 00    	je     3bb0 <printf+0x1a0>
        while(*s != 0){
    3b13:	0f b6 03             	movzbl (%ebx),%eax
      state = 0;
    3b16:	31 d2                	xor    %edx,%edx
        while(*s != 0){
    3b18:	84 c0                	test   %al,%al
    3b1a:	0f 84 3d ff ff ff    	je     3a5d <printf+0x4d>
    3b20:	8d 55 e7             	lea    -0x19(%ebp),%edx
    3b23:	89 75 d4             	mov    %esi,-0x2c(%ebp)
    3b26:	89 de                	mov    %ebx,%esi
    3b28:	89 d3                	mov    %edx,%ebx
    3b2a:	8d b6 00 00 00 00    	lea    0x0(%esi),%esi
  write(fd, &c, 1);
    3b30:	83 ec 04             	sub    $0x4,%esp
    3b33:	88 45 e7             	mov    %al,-0x19(%ebp)
          s++;
    3b36:	83 c6 01             	add    $0x1,%esi
  write(fd, &c, 1);
    3b39:	6a 01                	push   $0x1
    3b3b:	53                   	push   %ebx
    3b3c:	57                   	push   %edi
    3b3d:	e8 91 fd ff ff       	call   38d3 <write>
        while(*s != 0){
    3b42:	0f b6 06             	movzbl (%esi),%eax
    3b45:	83 c4 10             	add    $0x10,%esp
    3b48:	84 c0                	test   %al,%al
    3b4a:	75 e4                	jne    3b30 <printf+0x120>
      state = 0;
    3b4c:	8b 75 d4             	mov    -0x2c(%ebp),%esi
    3b4f:	31 d2                	xor    %edx,%edx
    3b51:	e9 07 ff ff ff       	jmp    3a5d <printf+0x4d>
    3b56:	8d b4 26 00 00 00 00 	lea    0x0(%esi,%eiz,1),%esi
    3b5d:	8d 76 00             	lea    0x0(%esi),%esi
        printint(fd, *ap, 10, 1);
    3b60:	8b 5d d0             	mov    -0x30(%ebp),%ebx
    3b63:	83 ec 0c             	sub    $0xc,%esp
    3b66:	b9 0a 00 00 00       	mov    $0xa,%ecx
    3b6b:	8b 13                	mov    (%ebx),%edx
    3b6d:	6a 01                	push   $0x1
    3b6f:	e9 6b ff ff ff       	jmp    3adf <printf+0xcf>
    3b74:	8d 74 26 00          	lea    0x0(%esi,%eiz,1),%esi
        putc(fd, *ap);
    3b78:	8b 5d d0             	mov    -0x30(%ebp),%ebx
  write(fd, &c, 1);
    3b7b:	83 ec 04             	sub    $0x4,%esp
    3b7e:	8d 55 e7             	lea    -0x19(%ebp),%edx
        putc(fd, *ap);
    3b81:	8b 03                	mov    (%ebx),%eax
        ap++;
    3b83:	83 c3 04             	add    $0x4,%ebx
        putc(fd, *ap);
    3b86:	88 45 e7             	mov    %al,-0x19(%ebp)
  write(fd, &c, 1);
    3b89:	6a 01                	push   $0x1
    3b8b:	52                   	push   %edx
    3b8c:	57                   	push   %edi
    3b8d:	e8 41 fd ff ff       	call   38d3 <write>
        ap++;
    3b92:	89 5d d0             	mov    %ebx,-0x30(%ebp)
    3b95:	83 c4 10             	add    $0x10,%esp
      state = 0;
    3b98:	31 d2                	xor    %edx,%edx
    3b9a:	e9 be fe ff ff       	jmp    3a5d <printf+0x4d>
    3b9f:	90                   	nop
  write(fd, &c, 1);
    3ba0:	83 ec 04             	sub    $0x4,%esp
    3ba3:	88 5d e7             	mov    %bl,-0x19(%ebp)
    3ba6:	8d 55 e7             	lea    -0x19(%ebp),%edx
    3ba9:	6a 01                	push   $0x1
    3bab:	e9 11 ff ff ff       	jmp    3ac1 <printf+0xb1>
    3bb0:	b8 28 00 00 00       	mov    $0x28,%eax
          s = "(null)";
    3bb5:	bb ce 54 00 00       	mov    $0x54ce,%ebx
    3bba:	e9 61 ff ff ff       	jmp    3b20 <printf+0x110>
    3bbf:	90                   	nop

00003bc0 <free>:
static Header base;
static Header *freep;

void
free(void *ap)
{
    3bc0:	55                   	push   %ebp
  Header *bp, *p;

  bp = (Header*)ap - 1;
  for(p = freep; !(bp > p && bp < p->s.ptr); p = p->s.ptr)
    3bc1:	a1 e0 a5 00 00       	mov    0xa5e0,%eax
{
    3bc6:	89 e5                	mov    %esp,%ebp
    3bc8:	57                   	push   %edi
    3bc9:	56                   	push   %esi
    3bca:	53                   	push   %ebx
    3bcb:	8b 5d 08             	mov    0x8(%ebp),%ebx
  bp = (Header*)ap - 1;
    3bce:	8d 4b f8             	lea    -0x8(%ebx),%ecx
  for(p = freep; !(bp > p && bp < p->s.ptr); p = p->s.ptr)
    3bd1:	8d b4 26 00 00 00 00 	lea    0x0(%esi,%eiz,1),%esi
    3bd8:	89 c2                	mov    %eax,%edx
    if(p >= p->s.ptr && (bp > p || bp < p->s.ptr))
    3bda:	8b 00                	mov    (%eax),%eax
  for(p = freep; !(bp > p && bp < p->s.ptr); p = p->s.ptr)
    3bdc:	39 ca                	cmp    %ecx,%edx
    3bde:	73 30                	jae    3c10 <free+0x50>
    3be0:	39 c1                	cmp    %eax,%ecx
    3be2:	72 04                	jb     3be8 <free+0x28>
    if(p >= p->s.ptr && (bp > p || bp < p->s.ptr))
    3be4:	39 c2                	cmp    %eax,%edx
    3be6:	72 f0                	jb     3bd8 <free+0x18>
      break;
  if(bp + bp->s.size == p->s.ptr){
    3be8:	8b 73 fc             	mov    -0x4(%ebx),%esi
    3beb:	8d 3c f1             	lea    (%ecx,%esi,8),%edi
    3bee:	39 f8                	cmp    %edi,%eax
    3bf0:	74 2e                	je     3c20 <free+0x60>
    bp->s.size += p->s.ptr->s.size;
    bp->s.ptr = p->s.ptr->s.ptr;
    3bf2:	89 43 f8             	mov    %eax,-0x8(%ebx)
  } else
    bp->s.ptr = p->s.ptr;
  if(p + p->s.size == bp){
    3bf5:	8b 42 04             	mov    0x4(%edx),%eax
    3bf8:	8d 34 c2             	lea    (%edx,%eax,8),%esi
    3bfb:	39 f1                	cmp    %esi,%ecx
    3bfd:	74 38                	je     3c37 <free+0x77>
    p->s.size += bp->s.size;
    p->s.ptr = bp->s.ptr;
    3bff:	89 0a                	mov    %ecx,(%edx)
  } else
    p->s.ptr = bp;
  freep = p;
}
    3c01:	5b                   	pop    %ebx
  freep = p;
    3c02:	89 15 e0 a5 00 00    	mov    %edx,0xa5e0
}
    3c08:	5e                   	pop    %esi
    3c09:	5f                   	pop    %edi
    3c0a:	5d                   	pop    %ebp
    3c0b:	c3                   	ret
    3c0c:	8d 74 26 00          	lea    0x0(%esi,%eiz,1),%esi
    if(p >= p->s.ptr && (bp > p || bp < p->s.ptr))
    3c10:	39 c1                	cmp    %eax,%ecx
    3c12:	72 d0                	jb     3be4 <free+0x24>
    3c14:	eb c2                	jmp    3bd8 <free+0x18>
    3c16:	8d b4 26 00 00 00 00 	lea    0x0(%esi,%eiz,1),%esi
    3c1d:	8d 76 00             	lea    0x0(%esi),%esi
    bp->s.size += p->s.ptr->s.size;
    3c20:	03 70 04             	add    0x4(%eax),%esi
    3c23:	89 73 fc             	mov    %esi,-0x4(%ebx)
    bp->s.ptr = p->s.ptr->s.ptr;
    3c26:	8b 02                	mov    (%edx),%eax
    3c28:	8b 00                	mov    (%eax),%eax
    3c2a:	89 43 f8             	mov    %eax,-0x8(%ebx)
  if(p + p->s.size == bp){
    3c2d:	8b 42 04             	mov    0x4(%edx),%eax
    3c30:	8d 34 c2             	lea    (%edx,%eax,8),%esi
    3c33:	39 f1                	cmp    %esi,%ecx
    3c35:	75 c8                	jne    3bff <free+0x3f>
    p->s.size += bp->s.size;
    3c37:	03 43 fc             	add    -0x4(%ebx),%eax
  freep = p;
    3c3a:	89 15 e0 a5 00 00    	mov    %edx,0xa5e0
    p->s.size += bp->s.size;
    3c40:	89 42 04             	mov    %eax,0x4(%edx)
    p->s.ptr = bp->s.ptr;
    3c43:	8b 4b f8             	mov    -0x8(%ebx),%ecx
    3c46:	89 0a                	mov    %ecx,(%edx)
}
    3c48:	5b                   	pop    %ebx
    3c49:	5e                   	pop    %esi
    3c4a:	5f                   	pop    %edi
    3c4b:	5d                   	pop    %ebp
    3c4c:	c3                   	ret
    3c4d:	8d 76 00             	lea    0x0(%esi),%esi

00003c50 <malloc>:
  return freep;
}

void*
malloc(uint nbytes)
{
    3c50:	55                   	push   %ebp
    3c51:	89 e5                	mov    %esp,%ebp
    3c53:	57                   	push   %edi
    3c54:	56                   	push   %esi
    3c55:	53                   	push   %ebx
    3c56:	83 ec 0c             	sub    $0xc,%esp
  Header *p, *prevp;
  uint nunits;

  nunits = (nbytes + sizeof(Header) - 1)/sizeof(Header) + 1;
    3c59:	8b 45 08             	mov    0x8(%ebp),%eax
  if((prevp = freep) == 0){
    3c5c:	8b 15 e0 a5 00 00    	mov    0xa5e0,%edx
  nunits = (nbytes + sizeof(Header) - 1)/sizeof(Header) + 1;
    3c62:	8d 78 07             	lea    0x7(%eax),%edi
    3c65:	c1 ef 03             	shr    $0x3,%edi
    3c68:	83 c7 01             	add    $0x1,%edi
  if((prevp = freep) == 0){
    3c6b:	85 d2                	test   %edx,%edx
    3c6d:	0f 84 8d 00 00 00    	je     3d00 <malloc+0xb0>
    base.s.ptr = freep = prevp = &base;
    base.s.size = 0;
  }
  for(p = prevp->s.ptr; ; prevp = p, p = p->s.ptr){
    3c73:	8b 02                	mov    (%edx),%eax
    if(p->s.size >= nunits){
    3c75:	8b 48 04             	mov    0x4(%eax),%ecx
    3c78:	39 f9                	cmp    %edi,%ecx
    3c7a:	73 64                	jae    3ce0 <malloc+0x90>
  if(nu < 4096)
    3c7c:	bb 00 10 00 00       	mov    $0x1000,%ebx
    3c81:	39 df                	cmp    %ebx,%edi
    3c83:	0f 43 df             	cmovae %edi,%ebx
  p = sbrk(nu * sizeof(Header));
    3c86:	8d 34 dd 00 00 00 00 	lea    0x0(,%ebx,8),%esi
    3c8d:	eb 0a                	jmp    3c99 <malloc+0x49>
    3c8f:	90                   	nop
  for(p = prevp->s.ptr; ; prevp = p, p = p->s.ptr){
    3c90:	8b 02                	mov    (%edx),%eax
    if(p->s.size >= nunits){
    3c92:	8b 48 04             	mov    0x4(%eax),%ecx
    3c95:	39 f9                	cmp    %edi,%ecx
    3c97:	73 47                	jae    3ce0 <malloc+0x90>
        p->s.size = nunits;
      }
      freep = prevp;
      return (void*)(p + 1);
    }
    if(p == freep)
    3c99:	89 c2                	mov    %eax,%edx
    3c9b:	39 05 e0 a5 00 00    	cmp    %eax,0xa5e0
    3ca1:	75 ed                	jne    3c90 <malloc+0x40>
  p = sbrk(nu * sizeof(Header));
    3ca3:	83 ec 0c             	sub    $0xc,%esp
    3ca6:	56                   	push   %esi
    3ca7:	e8 8f fc ff ff       	call   393b <sbrk>
  if(p == (char*)-1)
    3cac:	83 c4 10             	add    $0x10,%esp
    3caf:	83 f8 ff             	cmp    $0xffffffff,%eax
    3cb2:	74 1c                	je     3cd0 <malloc+0x80>
  hp->s.size = nu;
    3cb4:	89 58 04             	mov    %ebx,0x4(%eax)
  free((void*)(hp + 1));
    3cb7:	83 ec 0c             	sub    $0xc,%esp
    3cba:	83 c0 08             	add    $0x8,%eax
    3cbd:	50                   	push   %eax
    3cbe:	e8 fd fe ff ff       	call   3bc0 <free>
  return freep;
    3cc3:	8b 15 e0 a5 00 00    	mov    0xa5e0,%edx
      if((p = morecore(nunits)) == 0)
    3cc9:	83 c4 10             	add    $0x10,%esp
    3ccc:	85 d2                	test   %edx,%edx
    3cce:	75 c0                	jne    3c90 <malloc+0x40>
        return 0;
  }
}
    3cd0:	8d 65 f4             	lea    -0xc(%ebp),%esp
        return 0;
    3cd3:	31 c0                	xor    %eax,%eax
}
    3cd5:	5b                   	pop    %ebx
    3cd6:	5e                   	pop    %esi
    3cd7:	5f                   	pop    %edi
    3cd8:	5d                   	pop    %ebp
    3cd9:	c3                   	ret
    3cda:	8d b6 00 00 00 00    	lea    0x0(%esi),%esi
      if(p->s.size == nunits)
    3ce0:	39 cf                	cmp    %ecx,%edi
    3ce2:	74 4c                	je     3d30 <malloc+0xe0>
        p->s.size -= nunits;
    3ce4:	29 f9                	sub    %edi,%ecx
    3ce6:	89 48 04             	mov    %ecx,0x4(%eax)
        p += p->s.size;
    3ce9:	8d 04 c8             	lea    (%eax,%ecx,8),%eax
        p->s.size = nunits;
    3cec:	89 78 04             	mov    %edi,0x4(%eax)
      freep = prevp;
    3cef:	89 15 e0 a5 00 00    	mov    %edx,0xa5e0
}
    3cf5:	8d 65 f4             	lea    -0xc(%ebp),%esp
      return (void*)(p + 1);
    3cf8:	83 c0 08             	add    $0x8,%eax
}
    3cfb:	5b                   	pop    %ebx
    3cfc:	5e                   	pop    %esi
    3cfd:	5f                   	pop    %edi
    3cfe:	5d                   	pop    %ebp
    3cff:	c3                   	ret
    base.s.ptr = freep = prevp = &base;
    3d00:	c7 05 e0 a5 00 00 e4 	movl   $0xa5e4,0xa5e0
    3d07:	a5 00 00 
    base.s.size = 0;
    3d0a:	b8 e4 a5 00 00       	mov    $0xa5e4,%eax
    base.s.ptr = freep = prevp = &base;
    3d0f:	c7 05 e4 a5 00 00 e4 	movl   $0xa5e4,0xa5e4
    3d16:	a5 00 00 
    base.s.size = 0;
    3d19:	c7 05 e8 a5 00 00 00 	movl   $0x0,0xa5e8
    3d20:	00 00 00 
    if(p->s.size >= nunits){
    3d23:	e9 54 ff ff ff       	jmp    3c7c <malloc+0x2c>
    3d28:	8d b4 26 00 00 00 00 	lea    0x0(%esi,%eiz,1),%esi
    3d2f:	90                   	nop
        prevp->s.ptr = p->s.ptr;
    3d30:	8b 08                	mov    (%eax),%ecx
    3d32:	89 0a                	mov    %ecx,(%edx)
    3d34:	eb b9                	jmp    3cef <malloc+0x9f>
